ARM GAS  C:\Users\86138\AppData\Local\Temp\cclxKEgP.s 			page 1


   1              		.cpu cortex-m3
   2              		.eabi_attribute 20, 1
   3              		.eabi_attribute 21, 1
   4              		.eabi_attribute 23, 3
   5              		.eabi_attribute 24, 1
   6              		.eabi_attribute 25, 1
   7              		.eabi_attribute 26, 1
   8              		.eabi_attribute 30, 1
   9              		.eabi_attribute 34, 1
  10              		.eabi_attribute 18, 4
  11              		.file	"main.c"
  12              		.text
  13              	.Ltext0:
  14              		.cfi_sections	.debug_frame
  15              		.section	.text.MOTOR_Direction,"ax",%progbits
  16              		.align	1
  17              		.global	MOTOR_Direction
  18              		.arch armv7-m
  19              		.syntax unified
  20              		.thumb
  21              		.thumb_func
  22              		.fpu softvfp
  24              	MOTOR_Direction:
  25              	.LVL0:
  26              	.LFB67:
  27              		.file 1 "Core/Src/main.c"
   1:Core/Src/main.c **** /* USER CODE BEGIN Header */
   2:Core/Src/main.c **** /**
   3:Core/Src/main.c ****   ******************************************************************************
   4:Core/Src/main.c ****   * @file           : main.c
   5:Core/Src/main.c ****   * @brief          : Main program body
   6:Core/Src/main.c ****   ******************************************************************************
   7:Core/Src/main.c ****   * @attention
   8:Core/Src/main.c ****   *
   9:Core/Src/main.c ****   * Copyright (c) 2022 STMicroelectronics.
  10:Core/Src/main.c ****   * All rights reserved.
  11:Core/Src/main.c ****   *
  12:Core/Src/main.c ****   * This software is licensed under terms that can be found in the LICENSE file
  13:Core/Src/main.c ****   * in the root directory of this software component.
  14:Core/Src/main.c ****   * If no LICENSE file comes with this software, it is provided AS-IS.
  15:Core/Src/main.c ****   *
  16:Core/Src/main.c ****   ******************************************************************************
  17:Core/Src/main.c ****   */
  18:Core/Src/main.c **** /* USER CODE END Header */
  19:Core/Src/main.c **** /* Includes ------------------------------------------------------------------*/
  20:Core/Src/main.c **** #include "main.h"
  21:Core/Src/main.c **** #include "dma.h"
  22:Core/Src/main.c **** #include "tim.h"
  23:Core/Src/main.c **** #include "usart.h"
  24:Core/Src/main.c **** #include "gpio.h"
  25:Core/Src/main.c **** 
  26:Core/Src/main.c **** /* Private includes ----------------------------------------------------------*/
  27:Core/Src/main.c **** /* USER CODE BEGIN Includes */
  28:Core/Src/main.c **** 
  29:Core/Src/main.c **** /* USER CODE END Includes */
  30:Core/Src/main.c **** 
  31:Core/Src/main.c **** /* Private typedef -----------------------------------------------------------*/
ARM GAS  C:\Users\86138\AppData\Local\Temp\cclxKEgP.s 			page 2


  32:Core/Src/main.c **** /* USER CODE BEGIN PTD */
  33:Core/Src/main.c **** 
  34:Core/Src/main.c **** typedef enum
  35:Core/Src/main.c **** {
  36:Core/Src/main.c ****   back = 0,
  37:Core/Src/main.c ****   forward
  38:Core/Src/main.c **** }Direction_Typedef; //the direction of motor
  39:Core/Src/main.c **** 
  40:Core/Src/main.c **** typedef struct
  41:Core/Src/main.c **** {
  42:Core/Src/main.c ****   Direction_Typedef direction;
  43:Core/Src/main.c ****   int velocity;
  44:Core/Src/main.c **** }Motor_Typedef;
  45:Core/Src/main.c **** 
  46:Core/Src/main.c **** typedef struct
  47:Core/Src/main.c **** {
  48:Core/Src/main.c **** 	float Kp, Ki, Kd;
  49:Core/Src/main.c **** 	float P, I, D;
  50:Core/Src/main.c **** 	float Error_Last;	
  51:Core/Src/main.c **** }PID_Typedef;
  52:Core/Src/main.c **** 
  53:Core/Src/main.c **** /* USER CODE END PTD */
  54:Core/Src/main.c **** 
  55:Core/Src/main.c **** /* Private define ------------------------------------------------------------*/
  56:Core/Src/main.c **** /* USER CODE BEGIN PD */
  57:Core/Src/main.c **** 
  58:Core/Src/main.c **** #define PID_MAX 1000//改成自己设定的PWM波的单波最长输出时间
  59:Core/Src/main.c **** #define PID_MIN -1000//改成自己设定的PWM波的单波最长输出时间的相反数
  60:Core/Src/main.c **** 
  61:Core/Src/main.c **** /* USER CODE END PD */
  62:Core/Src/main.c **** 
  63:Core/Src/main.c **** /* Private macro -------------------------------------------------------------*/
  64:Core/Src/main.c **** /* USER CODE BEGIN PM */
  65:Core/Src/main.c **** #define Wheel_L 20
  66:Core/Src/main.c **** /* USER CODE END PM */
  67:Core/Src/main.c **** 
  68:Core/Src/main.c **** /* Private variables ---------------------------------------------------------*/
  69:Core/Src/main.c **** 
  70:Core/Src/main.c **** /* USER CODE BEGIN PV */
  71:Core/Src/main.c **** Motor_Typedef motor[5];
  72:Core/Src/main.c **** 
  73:Core/Src/main.c **** PID_Typedef *pid_speed[5];
  74:Core/Src/main.c **** PID_Typedef *pid_rotate;
  75:Core/Src/main.c **** PID_Typedef *pid_ordinate;
  76:Core/Src/main.c **** uint8_t RxBuffer[10];
  77:Core/Src/main.c **** 
  78:Core/Src/main.c **** /* USER CODE END PV */
  79:Core/Src/main.c **** 
  80:Core/Src/main.c **** /* Private function prototypes -----------------------------------------------*/
  81:Core/Src/main.c **** void SystemClock_Config(void);
  82:Core/Src/main.c **** /* USER CODE BEGIN PFP */
  83:Core/Src/main.c **** 
  84:Core/Src/main.c **** void MOTOR_Direction(int16_t motor_number, Direction_Typedef direction);
  85:Core/Src/main.c **** void HAL_TIM_PeriodElapsedCallback(TIM_HandleTypeDef *htim);
  86:Core/Src/main.c **** 
  87:Core/Src/main.c **** /* USER CODE END PFP */
  88:Core/Src/main.c **** 
ARM GAS  C:\Users\86138\AppData\Local\Temp\cclxKEgP.s 			page 3


  89:Core/Src/main.c **** /* Private user code ---------------------------------------------------------*/
  90:Core/Src/main.c **** /* USER CODE BEGIN 0 */
  91:Core/Src/main.c **** 
  92:Core/Src/main.c **** /* USER CODE END 0 */
  93:Core/Src/main.c **** 
  94:Core/Src/main.c **** /**
  95:Core/Src/main.c ****   * @brief  The application entry point.
  96:Core/Src/main.c ****   * @retval int
  97:Core/Src/main.c ****   */
  98:Core/Src/main.c **** int main(void)
  99:Core/Src/main.c **** {
 100:Core/Src/main.c ****   /* USER CODE BEGIN 1 */
 101:Core/Src/main.c **** 
 102:Core/Src/main.c ****   /* USER CODE END 1 */
 103:Core/Src/main.c **** 
 104:Core/Src/main.c ****   /* MCU Configuration--------------------------------------------------------*/
 105:Core/Src/main.c **** 
 106:Core/Src/main.c ****   /* Reset of all peripherals, Initializes the Flash interface and the Systick. */
 107:Core/Src/main.c ****   HAL_Init();
 108:Core/Src/main.c **** 
 109:Core/Src/main.c ****   /* USER CODE BEGIN Init */
 110:Core/Src/main.c **** 
 111:Core/Src/main.c ****   /* USER CODE END Init */
 112:Core/Src/main.c **** 
 113:Core/Src/main.c ****   /* Configure the system clock */
 114:Core/Src/main.c ****   SystemClock_Config();
 115:Core/Src/main.c **** 
 116:Core/Src/main.c ****   /* USER CODE BEGIN SysInit */
 117:Core/Src/main.c **** 
 118:Core/Src/main.c ****   /* USER CODE END SysInit */
 119:Core/Src/main.c **** 
 120:Core/Src/main.c ****   /* Initialize all configured peripherals */
 121:Core/Src/main.c ****   MX_GPIO_Init();
 122:Core/Src/main.c ****   MX_DMA_Init();
 123:Core/Src/main.c ****   MX_TIM1_Init();
 124:Core/Src/main.c ****   MX_TIM2_Init();
 125:Core/Src/main.c ****   MX_TIM3_Init();
 126:Core/Src/main.c ****   MX_TIM4_Init();
 127:Core/Src/main.c ****   MX_TIM5_Init();
 128:Core/Src/main.c ****   MX_UART4_Init();
 129:Core/Src/main.c ****   MX_UART5_Init();
 130:Core/Src/main.c ****   /* USER CODE BEGIN 2 */
 131:Core/Src/main.c ****   __HAL_TIM_CLEAR_IT(&htim1, TIM_IT_UPDATE);
 132:Core/Src/main.c ****   HAL_TIM_Base_Start_IT(&htim1);
 133:Core/Src/main.c ****   HAL_TIM_PWM_Start(&htim1, TIM_CHANNEL_1);
 134:Core/Src/main.c ****   HAL_TIM_PWM_Start(&htim1, TIM_CHANNEL_2);
 135:Core/Src/main.c ****   HAL_TIM_PWM_Start(&htim1, TIM_CHANNEL_3);
 136:Core/Src/main.c ****   HAL_TIM_PWM_Start(&htim1, TIM_CHANNEL_4);
 137:Core/Src/main.c **** 
 138:Core/Src/main.c ****   HAL_TIM_Encoder_Start(&htim2, TIM_CHANNEL_ALL);
 139:Core/Src/main.c ****   HAL_TIM_Encoder_Start(&htim3, TIM_CHANNEL_ALL);
 140:Core/Src/main.c ****   HAL_TIM_Encoder_Start(&htim4, TIM_CHANNEL_ALL);
 141:Core/Src/main.c ****   HAL_TIM_Encoder_Start(&htim5, TIM_CHANNEL_ALL);
 142:Core/Src/main.c ****   PID_Init(pid_speed, 10, 3, 0);
 143:Core/Src/main.c ****   /* USER CODE END 2 */
 144:Core/Src/main.c **** 
 145:Core/Src/main.c ****   /* Infinite loop */
ARM GAS  C:\Users\86138\AppData\Local\Temp\cclxKEgP.s 			page 4


 146:Core/Src/main.c ****   /* USER CODE BEGIN WHILE */
 147:Core/Src/main.c ****   while (1)
 148:Core/Src/main.c ****   {
 149:Core/Src/main.c ****     /* USER CODE END WHILE */
 150:Core/Src/main.c **** 
 151:Core/Src/main.c ****     /* USER CODE BEGIN 3 */
 152:Core/Src/main.c **** 
 153:Core/Src/main.c ****     // u5_printf("HELLO WORLD!\n");
 154:Core/Src/main.c ****   }
 155:Core/Src/main.c ****   /* USER CODE END 3 */
 156:Core/Src/main.c **** }
 157:Core/Src/main.c **** 
 158:Core/Src/main.c **** /**
 159:Core/Src/main.c ****   * @brief System Clock Configuration
 160:Core/Src/main.c ****   * @retval None
 161:Core/Src/main.c ****   */
 162:Core/Src/main.c **** void SystemClock_Config(void)
 163:Core/Src/main.c **** {
 164:Core/Src/main.c ****   RCC_OscInitTypeDef RCC_OscInitStruct = {0};
 165:Core/Src/main.c ****   RCC_ClkInitTypeDef RCC_ClkInitStruct = {0};
 166:Core/Src/main.c **** 
 167:Core/Src/main.c ****   /** Initializes the RCC Oscillators according to the specified parameters
 168:Core/Src/main.c ****   * in the RCC_OscInitTypeDef structure.
 169:Core/Src/main.c ****   */
 170:Core/Src/main.c ****   RCC_OscInitStruct.OscillatorType = RCC_OSCILLATORTYPE_HSE;
 171:Core/Src/main.c ****   RCC_OscInitStruct.HSEState = RCC_HSE_ON;
 172:Core/Src/main.c ****   RCC_OscInitStruct.HSEPredivValue = RCC_HSE_PREDIV_DIV1;
 173:Core/Src/main.c ****   RCC_OscInitStruct.HSIState = RCC_HSI_ON;
 174:Core/Src/main.c ****   RCC_OscInitStruct.PLL.PLLState = RCC_PLL_ON;
 175:Core/Src/main.c ****   RCC_OscInitStruct.PLL.PLLSource = RCC_PLLSOURCE_HSE;
 176:Core/Src/main.c ****   RCC_OscInitStruct.PLL.PLLMUL = RCC_PLL_MUL9;
 177:Core/Src/main.c ****   if (HAL_RCC_OscConfig(&RCC_OscInitStruct) != HAL_OK)
 178:Core/Src/main.c ****   {
 179:Core/Src/main.c ****     Error_Handler();
 180:Core/Src/main.c ****   }
 181:Core/Src/main.c **** 
 182:Core/Src/main.c ****   /** Initializes the CPU, AHB and APB buses clocks
 183:Core/Src/main.c ****   */
 184:Core/Src/main.c ****   RCC_ClkInitStruct.ClockType = RCC_CLOCKTYPE_HCLK|RCC_CLOCKTYPE_SYSCLK
 185:Core/Src/main.c ****                               |RCC_CLOCKTYPE_PCLK1|RCC_CLOCKTYPE_PCLK2;
 186:Core/Src/main.c ****   RCC_ClkInitStruct.SYSCLKSource = RCC_SYSCLKSOURCE_PLLCLK;
 187:Core/Src/main.c ****   RCC_ClkInitStruct.AHBCLKDivider = RCC_SYSCLK_DIV1;
 188:Core/Src/main.c ****   RCC_ClkInitStruct.APB1CLKDivider = RCC_HCLK_DIV2;
 189:Core/Src/main.c ****   RCC_ClkInitStruct.APB2CLKDivider = RCC_HCLK_DIV1;
 190:Core/Src/main.c **** 
 191:Core/Src/main.c ****   if (HAL_RCC_ClockConfig(&RCC_ClkInitStruct, FLASH_LATENCY_2) != HAL_OK)
 192:Core/Src/main.c ****   {
 193:Core/Src/main.c ****     Error_Handler();
 194:Core/Src/main.c ****   }
 195:Core/Src/main.c **** }
 196:Core/Src/main.c **** 
 197:Core/Src/main.c **** /* USER CODE BEGIN 4 */
 198:Core/Src/main.c **** /**
 199:Core/Src/main.c ****   * @brief the direction of motor
 200:Core/Src/main.c ****   * @param motor_number:the number of motor 1~4
 201:Core/Src/main.c ****   * @param direction:forward or back
 202:Core/Src/main.c ****   */
ARM GAS  C:\Users\86138\AppData\Local\Temp\cclxKEgP.s 			page 5


 203:Core/Src/main.c **** void MOTOR_Direction(int16_t motor_number, Direction_Typedef direction)
 204:Core/Src/main.c **** {       
  28              		.loc 1 204 1 view -0
  29              		.cfi_startproc
  30              		@ args = 0, pretend = 0, frame = 0
  31              		@ frame_needed = 0, uses_anonymous_args = 0
  32              		.loc 1 204 1 is_stmt 0 view .LVU1
  33 0000 70B5     		push	{r4, r5, r6, lr}
  34              	.LCFI0:
  35              		.cfi_def_cfa_offset 16
  36              		.cfi_offset 4, -16
  37              		.cfi_offset 5, -12
  38              		.cfi_offset 6, -8
  39              		.cfi_offset 14, -4
  40 0002 0546     		mov	r5, r0
  41 0004 0C46     		mov	r4, r1
 205:Core/Src/main.c ****   motor[motor_number].direction = direction;
  42              		.loc 1 205 3 is_stmt 1 view .LVU2
  43              		.loc 1 205 33 is_stmt 0 view .LVU3
  44 0006 3E4B     		ldr	r3, .L16
  45 0008 03F83010 		strb	r1, [r3, r0, lsl #3]
 206:Core/Src/main.c ****   if (direction == back)
  46              		.loc 1 206 3 is_stmt 1 view .LVU4
  47              		.loc 1 206 6 is_stmt 0 view .LVU5
  48 000c 99B9     		cbnz	r1, .L2
 207:Core/Src/main.c ****   {
 208:Core/Src/main.c ****       switch (motor_number)
  49              		.loc 1 208 7 is_stmt 1 view .LVU6
  50 000e 431E     		subs	r3, r0, #1
  51 0010 032B     		cmp	r3, #3
  52 0012 10D8     		bhi	.L2
  53 0014 DFE803F0 		tbb	[pc, r3]
  54              	.L4:
  55 0018 02       		.byte	(.L7-.L4)/2
  56 0019 12       		.byte	(.L6-.L4)/2
  57 001a 1E       		.byte	(.L5-.L4)/2
  58 001b 2C       		.byte	(.L3-.L4)/2
  59              		.p2align 1
  60              	.L7:
 209:Core/Src/main.c ****       {
 210:Core/Src/main.c ****       case 1:
 211:Core/Src/main.c ****         HAL_GPIO_WritePin(Motor1_in1_GPIO_Port, Motor1_in1_Pin, 1);
  61              		.loc 1 211 9 view .LVU7
  62 001c 394E     		ldr	r6, .L16+4
  63 001e 0122     		movs	r2, #1
  64 0020 4FF48061 		mov	r1, #1024
  65              	.LVL1:
  66              		.loc 1 211 9 is_stmt 0 view .LVU8
  67 0024 3046     		mov	r0, r6
  68              	.LVL2:
  69              		.loc 1 211 9 view .LVU9
  70 0026 FFF7FEFF 		bl	HAL_GPIO_WritePin
  71              	.LVL3:
 212:Core/Src/main.c ****         HAL_GPIO_WritePin(Motor1_in2_GPIO_Port, Motor1_in2_Pin, 0);
  72              		.loc 1 212 9 is_stmt 1 view .LVU10
  73 002a 0022     		movs	r2, #0
  74 002c 4FF40061 		mov	r1, #2048
ARM GAS  C:\Users\86138\AppData\Local\Temp\cclxKEgP.s 			page 6


  75 0030 3046     		mov	r0, r6
  76 0032 FFF7FEFF 		bl	HAL_GPIO_WritePin
  77              	.LVL4:
 213:Core/Src/main.c ****         break;
  78              		.loc 1 213 9 view .LVU11
  79              	.L2:
 214:Core/Src/main.c ****       case 2:
 215:Core/Src/main.c ****         HAL_GPIO_WritePin(Motor2_in1_GPIO_Port, Motor2_in1_Pin, 1);
 216:Core/Src/main.c ****         HAL_GPIO_WritePin(Motor2_in2_GPIO_Port, Motor2_in2_Pin, 0);
 217:Core/Src/main.c ****         break;
 218:Core/Src/main.c ****       case 3:
 219:Core/Src/main.c ****         HAL_GPIO_WritePin(Motor3_in1_GPIO_Port, Motor3_in1_Pin, 1);
 220:Core/Src/main.c ****         HAL_GPIO_WritePin(Motor3_in2_GPIO_Port, Motor3_in2_Pin, 0);
 221:Core/Src/main.c ****         break;
 222:Core/Src/main.c ****       case 4:
 223:Core/Src/main.c ****         HAL_GPIO_WritePin(Motor4_in1_GPIO_Port, Motor4_in1_Pin, 1);
 224:Core/Src/main.c ****         HAL_GPIO_WritePin(Motor4_in2_GPIO_Port, Motor4_in2_Pin, 0);
 225:Core/Src/main.c ****         break;
 226:Core/Src/main.c **** 
 227:Core/Src/main.c ****       default:
 228:Core/Src/main.c ****         break;
 229:Core/Src/main.c ****       }
 230:Core/Src/main.c ****   }
 231:Core/Src/main.c ****   if (direction == forward)
  80              		.loc 1 231 3 view .LVU12
  81              		.loc 1 231 6 is_stmt 0 view .LVU13
  82 0036 012C     		cmp	r4, #1
  83 0038 26D0     		beq	.L15
  84              	.L1:
 232:Core/Src/main.c ****   {
 233:Core/Src/main.c ****       switch (motor_number)
 234:Core/Src/main.c ****       {
 235:Core/Src/main.c ****       case 1:
 236:Core/Src/main.c ****         HAL_GPIO_WritePin(Motor1_in1_GPIO_Port, Motor1_in1_Pin, 0);
 237:Core/Src/main.c ****         HAL_GPIO_WritePin(Motor1_in2_GPIO_Port, Motor1_in2_Pin, 1);
 238:Core/Src/main.c ****         break;
 239:Core/Src/main.c ****       case 2:
 240:Core/Src/main.c ****         HAL_GPIO_WritePin(Motor2_in1_GPIO_Port, Motor2_in1_Pin, 0);
 241:Core/Src/main.c ****         HAL_GPIO_WritePin(Motor2_in2_GPIO_Port, Motor2_in2_Pin, 1);
 242:Core/Src/main.c ****         break;
 243:Core/Src/main.c ****       case 3:
 244:Core/Src/main.c ****         HAL_GPIO_WritePin(Motor3_in1_GPIO_Port, Motor3_in1_Pin, 0);
 245:Core/Src/main.c ****         HAL_GPIO_WritePin(Motor3_in2_GPIO_Port, Motor3_in2_Pin, 1);
 246:Core/Src/main.c ****         break;
 247:Core/Src/main.c ****       case 4:
 248:Core/Src/main.c ****         HAL_GPIO_WritePin(Motor4_in1_GPIO_Port, Motor4_in1_Pin, 0);
 249:Core/Src/main.c ****         HAL_GPIO_WritePin(Motor4_in2_GPIO_Port, Motor4_in2_Pin, 1);
 250:Core/Src/main.c ****         break;
 251:Core/Src/main.c ****       }
 252:Core/Src/main.c ****   }
 253:Core/Src/main.c **** }
  85              		.loc 1 253 1 view .LVU14
  86 003a 70BD     		pop	{r4, r5, r6, pc}
  87              	.LVL5:
  88              	.L6:
 215:Core/Src/main.c ****         HAL_GPIO_WritePin(Motor2_in2_GPIO_Port, Motor2_in2_Pin, 0);
  89              		.loc 1 215 9 is_stmt 1 view .LVU15
ARM GAS  C:\Users\86138\AppData\Local\Temp\cclxKEgP.s 			page 7


  90 003c 314E     		ldr	r6, .L16+4
  91 003e 0122     		movs	r2, #1
  92 0040 0221     		movs	r1, #2
  93              	.LVL6:
 215:Core/Src/main.c ****         HAL_GPIO_WritePin(Motor2_in2_GPIO_Port, Motor2_in2_Pin, 0);
  94              		.loc 1 215 9 is_stmt 0 view .LVU16
  95 0042 3046     		mov	r0, r6
  96              	.LVL7:
 215:Core/Src/main.c ****         HAL_GPIO_WritePin(Motor2_in2_GPIO_Port, Motor2_in2_Pin, 0);
  97              		.loc 1 215 9 view .LVU17
  98 0044 FFF7FEFF 		bl	HAL_GPIO_WritePin
  99              	.LVL8:
 216:Core/Src/main.c ****         break;
 100              		.loc 1 216 9 is_stmt 1 view .LVU18
 101 0048 0022     		movs	r2, #0
 102 004a 0421     		movs	r1, #4
 103 004c 3046     		mov	r0, r6
 104 004e FFF7FEFF 		bl	HAL_GPIO_WritePin
 105              	.LVL9:
 217:Core/Src/main.c ****       case 3:
 106              		.loc 1 217 9 view .LVU19
 107 0052 F0E7     		b	.L2
 108              	.LVL10:
 109              	.L5:
 219:Core/Src/main.c ****         HAL_GPIO_WritePin(Motor3_in2_GPIO_Port, Motor3_in2_Pin, 0);
 110              		.loc 1 219 9 view .LVU20
 111 0054 2B4E     		ldr	r6, .L16+4
 112 0056 0122     		movs	r2, #1
 113 0058 4FF48041 		mov	r1, #16384
 114              	.LVL11:
 219:Core/Src/main.c ****         HAL_GPIO_WritePin(Motor3_in2_GPIO_Port, Motor3_in2_Pin, 0);
 115              		.loc 1 219 9 is_stmt 0 view .LVU21
 116 005c 3046     		mov	r0, r6
 117              	.LVL12:
 219:Core/Src/main.c ****         HAL_GPIO_WritePin(Motor3_in2_GPIO_Port, Motor3_in2_Pin, 0);
 118              		.loc 1 219 9 view .LVU22
 119 005e FFF7FEFF 		bl	HAL_GPIO_WritePin
 120              	.LVL13:
 220:Core/Src/main.c ****         break;
 121              		.loc 1 220 9 is_stmt 1 view .LVU23
 122 0062 0022     		movs	r2, #0
 123 0064 4FF40041 		mov	r1, #32768
 124 0068 3046     		mov	r0, r6
 125 006a FFF7FEFF 		bl	HAL_GPIO_WritePin
 126              	.LVL14:
 221:Core/Src/main.c ****       case 4:
 127              		.loc 1 221 9 view .LVU24
 128 006e E2E7     		b	.L2
 129              	.LVL15:
 130              	.L3:
 223:Core/Src/main.c ****         HAL_GPIO_WritePin(Motor4_in2_GPIO_Port, Motor4_in2_Pin, 0);
 131              		.loc 1 223 9 view .LVU25
 132 0070 254E     		ldr	r6, .L16+8
 133 0072 0122     		movs	r2, #1
 134 0074 4021     		movs	r1, #64
 135              	.LVL16:
 223:Core/Src/main.c ****         HAL_GPIO_WritePin(Motor4_in2_GPIO_Port, Motor4_in2_Pin, 0);
ARM GAS  C:\Users\86138\AppData\Local\Temp\cclxKEgP.s 			page 8


 136              		.loc 1 223 9 is_stmt 0 view .LVU26
 137 0076 3046     		mov	r0, r6
 138              	.LVL17:
 223:Core/Src/main.c ****         HAL_GPIO_WritePin(Motor4_in2_GPIO_Port, Motor4_in2_Pin, 0);
 139              		.loc 1 223 9 view .LVU27
 140 0078 FFF7FEFF 		bl	HAL_GPIO_WritePin
 141              	.LVL18:
 224:Core/Src/main.c ****         break;
 142              		.loc 1 224 9 is_stmt 1 view .LVU28
 143 007c 0022     		movs	r2, #0
 144 007e 8021     		movs	r1, #128
 145 0080 3046     		mov	r0, r6
 146 0082 FFF7FEFF 		bl	HAL_GPIO_WritePin
 147              	.LVL19:
 225:Core/Src/main.c **** 
 148              		.loc 1 225 9 view .LVU29
 149 0086 D6E7     		b	.L2
 150              	.L15:
 233:Core/Src/main.c ****       {
 151              		.loc 1 233 7 view .LVU30
 152 0088 013D     		subs	r5, r5, #1
 153 008a 032D     		cmp	r5, #3
 154 008c D5D8     		bhi	.L1
 155 008e DFE805F0 		tbb	[pc, r5]
 156              	.L10:
 157 0092 02       		.byte	(.L13-.L10)/2
 158 0093 10       		.byte	(.L12-.L10)/2
 159 0094 1C       		.byte	(.L11-.L10)/2
 160 0095 2A       		.byte	(.L9-.L10)/2
 161              		.p2align 1
 162              	.L13:
 236:Core/Src/main.c ****         HAL_GPIO_WritePin(Motor1_in2_GPIO_Port, Motor1_in2_Pin, 1);
 163              		.loc 1 236 9 view .LVU31
 164 0096 1B4C     		ldr	r4, .L16+4
 165 0098 0022     		movs	r2, #0
 166 009a 4FF48061 		mov	r1, #1024
 167 009e 2046     		mov	r0, r4
 168 00a0 FFF7FEFF 		bl	HAL_GPIO_WritePin
 169              	.LVL20:
 237:Core/Src/main.c ****         break;
 170              		.loc 1 237 9 view .LVU32
 171 00a4 0122     		movs	r2, #1
 172 00a6 4FF40061 		mov	r1, #2048
 173 00aa 2046     		mov	r0, r4
 174 00ac FFF7FEFF 		bl	HAL_GPIO_WritePin
 175              	.LVL21:
 238:Core/Src/main.c ****       case 2:
 176              		.loc 1 238 9 view .LVU33
 177 00b0 C3E7     		b	.L1
 178              	.L12:
 240:Core/Src/main.c ****         HAL_GPIO_WritePin(Motor2_in2_GPIO_Port, Motor2_in2_Pin, 1);
 179              		.loc 1 240 9 view .LVU34
 180 00b2 144C     		ldr	r4, .L16+4
 181 00b4 0022     		movs	r2, #0
 182 00b6 0221     		movs	r1, #2
 183 00b8 2046     		mov	r0, r4
 184 00ba FFF7FEFF 		bl	HAL_GPIO_WritePin
ARM GAS  C:\Users\86138\AppData\Local\Temp\cclxKEgP.s 			page 9


 185              	.LVL22:
 241:Core/Src/main.c ****         break;
 186              		.loc 1 241 9 view .LVU35
 187 00be 0122     		movs	r2, #1
 188 00c0 0421     		movs	r1, #4
 189 00c2 2046     		mov	r0, r4
 190 00c4 FFF7FEFF 		bl	HAL_GPIO_WritePin
 191              	.LVL23:
 242:Core/Src/main.c ****       case 3:
 192              		.loc 1 242 9 view .LVU36
 193 00c8 B7E7     		b	.L1
 194              	.L11:
 244:Core/Src/main.c ****         HAL_GPIO_WritePin(Motor3_in2_GPIO_Port, Motor3_in2_Pin, 1);
 195              		.loc 1 244 9 view .LVU37
 196 00ca 0E4C     		ldr	r4, .L16+4
 197 00cc 0022     		movs	r2, #0
 198 00ce 4FF48041 		mov	r1, #16384
 199 00d2 2046     		mov	r0, r4
 200 00d4 FFF7FEFF 		bl	HAL_GPIO_WritePin
 201              	.LVL24:
 245:Core/Src/main.c ****         break;
 202              		.loc 1 245 9 view .LVU38
 203 00d8 0122     		movs	r2, #1
 204 00da 4FF40041 		mov	r1, #32768
 205 00de 2046     		mov	r0, r4
 206 00e0 FFF7FEFF 		bl	HAL_GPIO_WritePin
 207              	.LVL25:
 246:Core/Src/main.c ****       case 4:
 208              		.loc 1 246 9 view .LVU39
 209 00e4 A9E7     		b	.L1
 210              	.L9:
 248:Core/Src/main.c ****         HAL_GPIO_WritePin(Motor4_in2_GPIO_Port, Motor4_in2_Pin, 1);
 211              		.loc 1 248 9 view .LVU40
 212 00e6 084C     		ldr	r4, .L16+8
 213 00e8 0022     		movs	r2, #0
 214 00ea 4021     		movs	r1, #64
 215 00ec 2046     		mov	r0, r4
 216 00ee FFF7FEFF 		bl	HAL_GPIO_WritePin
 217              	.LVL26:
 249:Core/Src/main.c ****         break;
 218              		.loc 1 249 9 view .LVU41
 219 00f2 0122     		movs	r2, #1
 220 00f4 8021     		movs	r1, #128
 221 00f6 2046     		mov	r0, r4
 222 00f8 FFF7FEFF 		bl	HAL_GPIO_WritePin
 223              	.LVL27:
 250:Core/Src/main.c ****       }
 224              		.loc 1 250 9 view .LVU42
 225              		.loc 1 253 1 is_stmt 0 view .LVU43
 226 00fc 9DE7     		b	.L1
 227              	.L17:
 228 00fe 00BF     		.align	2
 229              	.L16:
 230 0100 00000000 		.word	.LANCHOR0
 231 0104 000C0140 		.word	1073810432
 232 0108 00100140 		.word	1073811456
 233              		.cfi_endproc
ARM GAS  C:\Users\86138\AppData\Local\Temp\cclxKEgP.s 			page 10


 234              	.LFE67:
 236              		.global	__aeabi_ui2f
 237              		.global	__aeabi_fmul
 238              		.global	__aeabi_f2d
 239              		.global	__aeabi_ddiv
 240              		.global	__aeabi_dmul
 241              		.global	__aeabi_d2iz
 242              		.section	.rodata.MOTOR_SpeedRead.str1.4,"aMS",%progbits,1
 243              		.align	2
 244              	.LC0:
 245 0000 25640A00 		.ascii	"%d\012\000"
 246              		.section	.text.MOTOR_SpeedRead,"ax",%progbits
 247              		.align	1
 248              		.global	MOTOR_SpeedRead
 249              		.syntax unified
 250              		.thumb
 251              		.thumb_func
 252              		.fpu softvfp
 254              	MOTOR_SpeedRead:
 255              	.LFB68:
 254:Core/Src/main.c **** 
 255:Core/Src/main.c **** /**
 256:Core/Src/main.c ****  * @brief read the speed of motors, stored in motor[].velocity
 257:Core/Src/main.c **** */
 258:Core/Src/main.c **** void MOTOR_SpeedRead()
 259:Core/Src/main.c **** {
 256              		.loc 1 259 1 is_stmt 1 view -0
 257              		.cfi_startproc
 258              		@ args = 0, pretend = 0, frame = 16
 259              		@ frame_needed = 0, uses_anonymous_args = 0
 260 0000 10B5     		push	{r4, lr}
 261              	.LCFI1:
 262              		.cfi_def_cfa_offset 8
 263              		.cfi_offset 4, -8
 264              		.cfi_offset 14, -4
 265 0002 84B0     		sub	sp, sp, #16
 266              	.LCFI2:
 267              		.cfi_def_cfa_offset 24
 260:Core/Src/main.c ****     __IO uint32_t count1 = __HAL_TIM_GET_COUNTER(&htim2);//电机1的编码器计数
 268              		.loc 1 260 5 view .LVU45
 269              		.loc 1 260 28 is_stmt 0 view .LVU46
 270 0004 424B     		ldr	r3, .L20+8
 271 0006 1C68     		ldr	r4, [r3]
 272 0008 636A     		ldr	r3, [r4, #36]
 273              		.loc 1 260 19 view .LVU47
 274 000a 0393     		str	r3, [sp, #12]
 261:Core/Src/main.c ****     __IO uint32_t count2 = __HAL_TIM_GET_COUNTER(&htim3);//电机2的编码器计数
 275              		.loc 1 261 5 is_stmt 1 view .LVU48
 276              		.loc 1 261 28 is_stmt 0 view .LVU49
 277 000c 414B     		ldr	r3, .L20+12
 278 000e 1868     		ldr	r0, [r3]
 279 0010 436A     		ldr	r3, [r0, #36]
 280              		.loc 1 261 19 view .LVU50
 281 0012 0293     		str	r3, [sp, #8]
 262:Core/Src/main.c ****     __IO uint32_t count3 = __HAL_TIM_GET_COUNTER(&htim4);//电机3的编码器计数
 282              		.loc 1 262 5 is_stmt 1 view .LVU51
 283              		.loc 1 262 28 is_stmt 0 view .LVU52
ARM GAS  C:\Users\86138\AppData\Local\Temp\cclxKEgP.s 			page 11


 284 0014 404B     		ldr	r3, .L20+16
 285 0016 1968     		ldr	r1, [r3]
 286 0018 4B6A     		ldr	r3, [r1, #36]
 287              		.loc 1 262 19 view .LVU53
 288 001a 0193     		str	r3, [sp, #4]
 263:Core/Src/main.c ****     __IO uint32_t count4 = __HAL_TIM_GET_COUNTER(&htim5);//电机4的编码器计数
 289              		.loc 1 263 5 is_stmt 1 view .LVU54
 290              		.loc 1 263 28 is_stmt 0 view .LVU55
 291 001c 3F4B     		ldr	r3, .L20+20
 292 001e 1A68     		ldr	r2, [r3]
 293 0020 536A     		ldr	r3, [r2, #36]
 294              		.loc 1 263 19 view .LVU56
 295 0022 0093     		str	r3, [sp]
 264:Core/Src/main.c ****     
 265:Core/Src/main.c ****     __HAL_TIM_SetCounter(&htim2, 0);
 296              		.loc 1 265 5 is_stmt 1 view .LVU57
 297 0024 0023     		movs	r3, #0
 298 0026 6362     		str	r3, [r4, #36]
 266:Core/Src/main.c ****     __HAL_TIM_SetCounter(&htim3, 0);
 299              		.loc 1 266 5 view .LVU58
 300 0028 4362     		str	r3, [r0, #36]
 267:Core/Src/main.c ****     __HAL_TIM_SetCounter(&htim4, 0);
 301              		.loc 1 267 5 view .LVU59
 302 002a 4B62     		str	r3, [r1, #36]
 268:Core/Src/main.c ****     __HAL_TIM_SetCounter(&htim5, 0);
 303              		.loc 1 268 5 view .LVU60
 304 002c 5362     		str	r3, [r2, #36]
 269:Core/Src/main.c **** 
 270:Core/Src/main.c ****     motor[1].velocity = (float)count1 / 4 / 0.001 / 260 * Wheel_L;
 305              		.loc 1 270 5 view .LVU61
 306              		.loc 1 270 25 is_stmt 0 view .LVU62
 307 002e 0398     		ldr	r0, [sp, #12]
 308 0030 FFF7FEFF 		bl	__aeabi_ui2f
 309              	.LVL28:
 310              		.loc 1 270 39 view .LVU63
 311 0034 4FF07A51 		mov	r1, #1048576000
 312 0038 FFF7FEFF 		bl	__aeabi_fmul
 313              	.LVL29:
 314 003c FFF7FEFF 		bl	__aeabi_f2d
 315              	.LVL30:
 316              		.loc 1 270 43 view .LVU64
 317 0040 31A3     		adr	r3, .L20
 318 0042 D3E90023 		ldrd	r2, [r3]
 319 0046 FFF7FEFF 		bl	__aeabi_ddiv
 320              	.LVL31:
 321              		.loc 1 270 51 view .LVU65
 322 004a 0022     		movs	r2, #0
 323 004c 344B     		ldr	r3, .L20+24
 324 004e FFF7FEFF 		bl	__aeabi_ddiv
 325              	.LVL32:
 326              		.loc 1 270 57 view .LVU66
 327 0052 0022     		movs	r2, #0
 328 0054 334B     		ldr	r3, .L20+28
 329 0056 FFF7FEFF 		bl	__aeabi_dmul
 330              	.LVL33:
 331              		.loc 1 270 23 view .LVU67
 332 005a 334C     		ldr	r4, .L20+32
ARM GAS  C:\Users\86138\AppData\Local\Temp\cclxKEgP.s 			page 12


 333 005c FFF7FEFF 		bl	__aeabi_d2iz
 334              	.LVL34:
 335 0060 E060     		str	r0, [r4, #12]
 271:Core/Src/main.c ****     motor[2].velocity = (float)count2 / 4 / 0.001 / 260 * Wheel_L;
 336              		.loc 1 271 5 is_stmt 1 view .LVU68
 337              		.loc 1 271 25 is_stmt 0 view .LVU69
 338 0062 0298     		ldr	r0, [sp, #8]
 339 0064 FFF7FEFF 		bl	__aeabi_ui2f
 340              	.LVL35:
 341              		.loc 1 271 39 view .LVU70
 342 0068 4FF07A51 		mov	r1, #1048576000
 343 006c FFF7FEFF 		bl	__aeabi_fmul
 344              	.LVL36:
 345 0070 FFF7FEFF 		bl	__aeabi_f2d
 346              	.LVL37:
 347              		.loc 1 271 43 view .LVU71
 348 0074 24A3     		adr	r3, .L20
 349 0076 D3E90023 		ldrd	r2, [r3]
 350 007a FFF7FEFF 		bl	__aeabi_ddiv
 351              	.LVL38:
 352              		.loc 1 271 51 view .LVU72
 353 007e 0022     		movs	r2, #0
 354 0080 274B     		ldr	r3, .L20+24
 355 0082 FFF7FEFF 		bl	__aeabi_ddiv
 356              	.LVL39:
 357              		.loc 1 271 57 view .LVU73
 358 0086 0022     		movs	r2, #0
 359 0088 264B     		ldr	r3, .L20+28
 360 008a FFF7FEFF 		bl	__aeabi_dmul
 361              	.LVL40:
 362              		.loc 1 271 23 view .LVU74
 363 008e FFF7FEFF 		bl	__aeabi_d2iz
 364              	.LVL41:
 365 0092 6061     		str	r0, [r4, #20]
 272:Core/Src/main.c ****     motor[3].velocity = (float)count3 / 4 / 0.001 / 260 * Wheel_L;
 366              		.loc 1 272 5 is_stmt 1 view .LVU75
 367              		.loc 1 272 25 is_stmt 0 view .LVU76
 368 0094 0198     		ldr	r0, [sp, #4]
 369 0096 FFF7FEFF 		bl	__aeabi_ui2f
 370              	.LVL42:
 371              		.loc 1 272 39 view .LVU77
 372 009a 4FF07A51 		mov	r1, #1048576000
 373 009e FFF7FEFF 		bl	__aeabi_fmul
 374              	.LVL43:
 375 00a2 FFF7FEFF 		bl	__aeabi_f2d
 376              	.LVL44:
 377              		.loc 1 272 43 view .LVU78
 378 00a6 18A3     		adr	r3, .L20
 379 00a8 D3E90023 		ldrd	r2, [r3]
 380 00ac FFF7FEFF 		bl	__aeabi_ddiv
 381              	.LVL45:
 382              		.loc 1 272 51 view .LVU79
 383 00b0 0022     		movs	r2, #0
 384 00b2 1B4B     		ldr	r3, .L20+24
 385 00b4 FFF7FEFF 		bl	__aeabi_ddiv
 386              	.LVL46:
 387              		.loc 1 272 57 view .LVU80
ARM GAS  C:\Users\86138\AppData\Local\Temp\cclxKEgP.s 			page 13


 388 00b8 0022     		movs	r2, #0
 389 00ba 1A4B     		ldr	r3, .L20+28
 390 00bc FFF7FEFF 		bl	__aeabi_dmul
 391              	.LVL47:
 392              		.loc 1 272 23 view .LVU81
 393 00c0 FFF7FEFF 		bl	__aeabi_d2iz
 394              	.LVL48:
 395 00c4 E061     		str	r0, [r4, #28]
 273:Core/Src/main.c ****     motor[4].velocity = (float)count4 / 4 / 0.001 / 260 * Wheel_L;
 396              		.loc 1 273 5 is_stmt 1 view .LVU82
 397              		.loc 1 273 25 is_stmt 0 view .LVU83
 398 00c6 0098     		ldr	r0, [sp]
 399 00c8 FFF7FEFF 		bl	__aeabi_ui2f
 400              	.LVL49:
 401              		.loc 1 273 39 view .LVU84
 402 00cc 4FF07A51 		mov	r1, #1048576000
 403 00d0 FFF7FEFF 		bl	__aeabi_fmul
 404              	.LVL50:
 405 00d4 FFF7FEFF 		bl	__aeabi_f2d
 406              	.LVL51:
 407              		.loc 1 273 43 view .LVU85
 408 00d8 0BA3     		adr	r3, .L20
 409 00da D3E90023 		ldrd	r2, [r3]
 410 00de FFF7FEFF 		bl	__aeabi_ddiv
 411              	.LVL52:
 412              		.loc 1 273 51 view .LVU86
 413 00e2 0022     		movs	r2, #0
 414 00e4 0E4B     		ldr	r3, .L20+24
 415 00e6 FFF7FEFF 		bl	__aeabi_ddiv
 416              	.LVL53:
 417              		.loc 1 273 57 view .LVU87
 418 00ea 0022     		movs	r2, #0
 419 00ec 0D4B     		ldr	r3, .L20+28
 420 00ee FFF7FEFF 		bl	__aeabi_dmul
 421              	.LVL54:
 422              		.loc 1 273 23 view .LVU88
 423 00f2 FFF7FEFF 		bl	__aeabi_d2iz
 424              	.LVL55:
 425 00f6 6062     		str	r0, [r4, #36]
 274:Core/Src/main.c ****     u5_printf("%d\n", count1);
 426              		.loc 1 274 5 is_stmt 1 view .LVU89
 427 00f8 0399     		ldr	r1, [sp, #12]
 428 00fa 0C48     		ldr	r0, .L20+36
 429 00fc FFF7FEFF 		bl	u5_printf
 430              	.LVL56:
 275:Core/Src/main.c **** }
 431              		.loc 1 275 1 is_stmt 0 view .LVU90
 432 0100 04B0     		add	sp, sp, #16
 433              	.LCFI3:
 434              		.cfi_def_cfa_offset 8
 435              		@ sp needed
 436 0102 10BD     		pop	{r4, pc}
 437              	.L21:
 438 0104 AFF30080 		.align	3
 439              	.L20:
 440 0108 FCA9F1D2 		.word	-755914244
 441 010c 4D62503F 		.word	1062232653
ARM GAS  C:\Users\86138\AppData\Local\Temp\cclxKEgP.s 			page 14


 442 0110 00000000 		.word	htim2
 443 0114 00000000 		.word	htim3
 444 0118 00000000 		.word	htim4
 445 011c 00000000 		.word	htim5
 446 0120 00407040 		.word	1081098240
 447 0124 00003440 		.word	1077149696
 448 0128 00000000 		.word	.LANCHOR0
 449 012c 00000000 		.word	.LC0
 450              		.cfi_endproc
 451              	.LFE68:
 453              		.section	.text.PID_Init,"ax",%progbits
 454              		.align	1
 455              		.global	PID_Init
 456              		.syntax unified
 457              		.thumb
 458              		.thumb_func
 459              		.fpu softvfp
 461              	PID_Init:
 462              	.LVL57:
 463              	.LFB69:
 276:Core/Src/main.c **** 
 277:Core/Src/main.c **** /**
 278:Core/Src/main.c ****   * @brief Initialize PID
 279:Core/Src/main.c ****   * @param pid: the pid controller
 280:Core/Src/main.c ****   * @param p_set: Kp of a specific pid controller
 281:Core/Src/main.c ****   * @param i_set: Ki of a specific pid controller
 282:Core/Src/main.c ****   * @param d_set: Kd of a specific pid controller
 283:Core/Src/main.c **** */
 284:Core/Src/main.c **** void PID_Init(PID_Typedef *pid, float p_set, float i_set, float d_set)
 285:Core/Src/main.c **** {
 464              		.loc 1 285 1 is_stmt 1 view -0
 465              		.cfi_startproc
 466              		@ args = 0, pretend = 0, frame = 0
 467              		@ frame_needed = 0, uses_anonymous_args = 0
 468              		@ link register save eliminated.
 286:Core/Src/main.c ****   pid->Kp = p_set;
 469              		.loc 1 286 3 view .LVU92
 470              		.loc 1 286 11 is_stmt 0 view .LVU93
 471 0000 0160     		str	r1, [r0]	@ float
 287:Core/Src/main.c ****   pid->Ki = i_set;
 472              		.loc 1 287 3 is_stmt 1 view .LVU94
 473              		.loc 1 287 11 is_stmt 0 view .LVU95
 474 0002 4260     		str	r2, [r0, #4]	@ float
 288:Core/Src/main.c ****   pid->Kd = d_set;
 475              		.loc 1 288 3 is_stmt 1 view .LVU96
 476              		.loc 1 288 11 is_stmt 0 view .LVU97
 477 0004 8360     		str	r3, [r0, #8]	@ float
 289:Core/Src/main.c **** }
 478              		.loc 1 289 1 view .LVU98
 479 0006 7047     		bx	lr
 480              		.cfi_endproc
 481              	.LFE69:
 483              		.section	.text.PID_Clear,"ax",%progbits
 484              		.align	1
 485              		.global	PID_Clear
 486              		.syntax unified
 487              		.thumb
ARM GAS  C:\Users\86138\AppData\Local\Temp\cclxKEgP.s 			page 15


 488              		.thumb_func
 489              		.fpu softvfp
 491              	PID_Clear:
 492              	.LVL58:
 493              	.LFB70:
 290:Core/Src/main.c **** 
 291:Core/Src/main.c **** /**
 292:Core/Src/main.c ****  * @brief clear the former status of a pid controller
 293:Core/Src/main.c ****  * @param pid: the pid controller
 294:Core/Src/main.c **** */
 295:Core/Src/main.c **** void PID_Clear(PID_Typedef *pid)
 296:Core/Src/main.c **** {
 494              		.loc 1 296 1 is_stmt 1 view -0
 495              		.cfi_startproc
 496              		@ args = 0, pretend = 0, frame = 0
 497              		@ frame_needed = 0, uses_anonymous_args = 0
 498              		@ link register save eliminated.
 297:Core/Src/main.c ****   pid->P = 0;
 499              		.loc 1 297 3 view .LVU100
 500              		.loc 1 297 10 is_stmt 0 view .LVU101
 501 0000 0023     		movs	r3, #0
 502 0002 C360     		str	r3, [r0, #12]	@ float
 298:Core/Src/main.c ****   pid->I = 0;
 503              		.loc 1 298 3 is_stmt 1 view .LVU102
 504              		.loc 1 298 10 is_stmt 0 view .LVU103
 505 0004 0361     		str	r3, [r0, #16]	@ float
 299:Core/Src/main.c ****   pid->D = 0;
 506              		.loc 1 299 3 is_stmt 1 view .LVU104
 507              		.loc 1 299 10 is_stmt 0 view .LVU105
 508 0006 4361     		str	r3, [r0, #20]	@ float
 300:Core/Src/main.c ****   pid->Error_Last = 0;
 509              		.loc 1 300 3 is_stmt 1 view .LVU106
 510              		.loc 1 300 19 is_stmt 0 view .LVU107
 511 0008 8361     		str	r3, [r0, #24]	@ float
 301:Core/Src/main.c **** }
 512              		.loc 1 301 1 view .LVU108
 513 000a 7047     		bx	lr
 514              		.cfi_endproc
 515              	.LFE70:
 517              		.global	__aeabi_fsub
 518              		.global	__aeabi_fadd
 519              		.global	__aeabi_fcmpgt
 520              		.global	__aeabi_fcmplt
 521              		.global	__aeabi_fcmpeq
 522              		.global	__aeabi_f2iz
 523              		.section	.text.PID_Calculate,"ax",%progbits
 524              		.align	1
 525              		.global	PID_Calculate
 526              		.syntax unified
 527              		.thumb
 528              		.thumb_func
 529              		.fpu softvfp
 531              	PID_Calculate:
 532              	.LVL59:
 533              	.LFB71:
 302:Core/Src/main.c **** 
 303:Core/Src/main.c **** 
ARM GAS  C:\Users\86138\AppData\Local\Temp\cclxKEgP.s 			page 16


 304:Core/Src/main.c **** /**
 305:Core/Src/main.c ****  * @brief Calculate PID
 306:Core/Src/main.c ****  * @param pid: which pid controller
 307:Core/Src/main.c ****  * @param set_value: the target value
 308:Core/Src/main.c ****  * @param now_value: the current value
 309:Core/Src/main.c ****  * @return the pwm to be applied
 310:Core/Src/main.c **** */
 311:Core/Src/main.c **** int PID_Calculate(PID_Typedef *pid, float set_value, float now_value )
 312:Core/Src/main.c **** {
 534              		.loc 1 312 1 is_stmt 1 view -0
 535              		.cfi_startproc
 536              		@ args = 0, pretend = 0, frame = 0
 537              		@ frame_needed = 0, uses_anonymous_args = 0
 538              		.loc 1 312 1 is_stmt 0 view .LVU110
 539 0000 2DE9F041 		push	{r4, r5, r6, r7, r8, lr}
 540              	.LCFI4:
 541              		.cfi_def_cfa_offset 24
 542              		.cfi_offset 4, -24
 543              		.cfi_offset 5, -20
 544              		.cfi_offset 6, -16
 545              		.cfi_offset 7, -12
 546              		.cfi_offset 8, -8
 547              		.cfi_offset 14, -4
 548 0004 0446     		mov	r4, r0
 549 0006 8846     		mov	r8, r1
 313:Core/Src/main.c **** 	pid->P = set_value - now_value;
 550              		.loc 1 313 2 is_stmt 1 view .LVU111
 551              		.loc 1 313 21 is_stmt 0 view .LVU112
 552 0008 1146     		mov	r1, r2
 553              	.LVL60:
 554              		.loc 1 313 21 view .LVU113
 555 000a 4046     		mov	r0, r8
 556              	.LVL61:
 557              		.loc 1 313 21 view .LVU114
 558 000c FFF7FEFF 		bl	__aeabi_fsub
 559              	.LVL62:
 560              		.loc 1 313 21 view .LVU115
 561 0010 0646     		mov	r6, r0
 562              		.loc 1 313 9 view .LVU116
 563 0012 E060     		str	r0, [r4, #12]	@ float
 314:Core/Src/main.c **** 	pid->I += pid->P;
 564              		.loc 1 314 2 is_stmt 1 view .LVU117
 565              		.loc 1 314 9 is_stmt 0 view .LVU118
 566 0014 2169     		ldr	r1, [r4, #16]	@ float
 567 0016 FFF7FEFF 		bl	__aeabi_fadd
 568              	.LVL63:
 569 001a 0546     		mov	r5, r0
 570 001c 2061     		str	r0, [r4, #16]	@ float
 315:Core/Src/main.c **** 	pid->D = pid->P - pid->Error_Last;
 571              		.loc 1 315 2 is_stmt 1 view .LVU119
 572              		.loc 1 315 18 is_stmt 0 view .LVU120
 573 001e A169     		ldr	r1, [r4, #24]	@ float
 574 0020 3046     		mov	r0, r6
 575 0022 FFF7FEFF 		bl	__aeabi_fsub
 576              	.LVL64:
 577 0026 0746     		mov	r7, r0
 578              		.loc 1 315 9 view .LVU121
ARM GAS  C:\Users\86138\AppData\Local\Temp\cclxKEgP.s 			page 17


 579 0028 6061     		str	r0, [r4, #20]	@ float
 316:Core/Src/main.c **** 	pid->Error_Last = pid->P;
 580              		.loc 1 316 2 is_stmt 1 view .LVU122
 581              		.loc 1 316 18 is_stmt 0 view .LVU123
 582 002a A661     		str	r6, [r4, #24]	@ float
 317:Core/Src/main.c **** 	pid->I=pid->I>1000?1000:(pid->I<(-1000)?(-1000):pid->I);
 583              		.loc 1 317 2 is_stmt 1 view .LVU124
 584              		.loc 1 317 25 is_stmt 0 view .LVU125
 585 002c 1749     		ldr	r1, .L33
 586 002e 2846     		mov	r0, r5
 587 0030 FFF7FEFF 		bl	__aeabi_fcmpgt
 588              	.LVL65:
 589 0034 30B9     		cbnz	r0, .L29
 590              		.loc 1 317 49 discriminator 2 view .LVU126
 591 0036 1649     		ldr	r1, .L33+4
 592 0038 2846     		mov	r0, r5
 593 003a FFF7FEFF 		bl	__aeabi_fcmplt
 594              	.LVL66:
 595 003e 10B1     		cbz	r0, .L25
 596              		.loc 1 317 49 view .LVU127
 597 0040 134D     		ldr	r5, .L33+4
 598 0042 00E0     		b	.L25
 599              	.L29:
 600              		.loc 1 317 25 view .LVU128
 601 0044 114D     		ldr	r5, .L33
 602              	.L25:
 603              		.loc 1 317 8 discriminator 8 view .LVU129
 604 0046 2561     		str	r5, [r4, #16]	@ float
 318:Core/Src/main.c **** 	if( set_value == 0 )			pid->I = 0;
 605              		.loc 1 318 2 is_stmt 1 discriminator 8 view .LVU130
 606              		.loc 1 318 4 is_stmt 0 discriminator 8 view .LVU131
 607 0048 0021     		movs	r1, #0
 608 004a 4046     		mov	r0, r8
 609 004c FFF7FEFF 		bl	__aeabi_fcmpeq
 610              	.LVL67:
 611 0050 08B1     		cbz	r0, .L27
 612              		.loc 1 318 25 is_stmt 1 discriminator 1 view .LVU132
 613              		.loc 1 318 32 is_stmt 0 discriminator 1 view .LVU133
 614 0052 0023     		movs	r3, #0
 615 0054 2361     		str	r3, [r4, #16]	@ float
 616              	.L27:
 319:Core/Src/main.c **** 	return(pid->Kp*pid->P  +  pid->Ki*pid->I  +  pid->Kd*pid->D);
 617              		.loc 1 319 2 is_stmt 1 view .LVU134
 618              		.loc 1 319 16 is_stmt 0 view .LVU135
 619 0056 2168     		ldr	r1, [r4]	@ float
 620 0058 3046     		mov	r0, r6
 621 005a FFF7FEFF 		bl	__aeabi_fmul
 622              	.LVL68:
 623 005e 0546     		mov	r5, r0
 624              		.loc 1 319 35 view .LVU136
 625 0060 2169     		ldr	r1, [r4, #16]	@ float
 626 0062 6068     		ldr	r0, [r4, #4]	@ float
 627 0064 FFF7FEFF 		bl	__aeabi_fmul
 628              	.LVL69:
 629 0068 0146     		mov	r1, r0
 630              		.loc 1 319 25 view .LVU137
 631 006a 2846     		mov	r0, r5
ARM GAS  C:\Users\86138\AppData\Local\Temp\cclxKEgP.s 			page 18


 632 006c FFF7FEFF 		bl	__aeabi_fadd
 633              	.LVL70:
 634 0070 0546     		mov	r5, r0
 635              		.loc 1 319 54 view .LVU138
 636 0072 A168     		ldr	r1, [r4, #8]	@ float
 637 0074 3846     		mov	r0, r7
 638 0076 FFF7FEFF 		bl	__aeabi_fmul
 639              	.LVL71:
 640 007a 0146     		mov	r1, r0
 641              		.loc 1 319 44 view .LVU139
 642 007c 2846     		mov	r0, r5
 643 007e FFF7FEFF 		bl	__aeabi_fadd
 644              	.LVL72:
 645 0082 FFF7FEFF 		bl	__aeabi_f2iz
 646              	.LVL73:
 320:Core/Src/main.c **** }
 647              		.loc 1 320 1 view .LVU140
 648 0086 BDE8F081 		pop	{r4, r5, r6, r7, r8, pc}
 649              	.LVL74:
 650              	.L34:
 651              		.loc 1 320 1 view .LVU141
 652 008a 00BF     		.align	2
 653              	.L33:
 654 008c 00007A44 		.word	1148846080
 655 0090 00007AC4 		.word	-998637568
 656              		.cfi_endproc
 657              	.LFE71:
 659              		.global	__aeabi_i2f
 660              		.section	.text.MOTOR_Speedcontrol,"ax",%progbits
 661              		.align	1
 662              		.global	MOTOR_Speedcontrol
 663              		.syntax unified
 664              		.thumb
 665              		.thumb_func
 666              		.fpu softvfp
 668              	MOTOR_Speedcontrol:
 669              	.LVL75:
 670              	.LFB72:
 321:Core/Src/main.c **** 
 322:Core/Src/main.c **** 
 323:Core/Src/main.c **** 
 324:Core/Src/main.c **** /**
 325:Core/Src/main.c ****  * @brief control the speed of motors
 326:Core/Src/main.c ****  * @param motor_number: number of the motor, range 1~4
 327:Core/Src/main.c ****  * @param direction: forward or back
 328:Core/Src/main.c ****  * @param target_speed: target speed to reach
 329:Core/Src/main.c **** */
 330:Core/Src/main.c **** void MOTOR_Speedcontrol(int16_t motor_number, Direction_Typedef direction, float target_speed)
 331:Core/Src/main.c **** {
 671              		.loc 1 331 1 is_stmt 1 view -0
 672              		.cfi_startproc
 673              		@ args = 0, pretend = 0, frame = 0
 674              		@ frame_needed = 0, uses_anonymous_args = 0
 675              		.loc 1 331 1 is_stmt 0 view .LVU143
 676 0000 38B5     		push	{r3, r4, r5, lr}
 677              	.LCFI5:
 678              		.cfi_def_cfa_offset 16
ARM GAS  C:\Users\86138\AppData\Local\Temp\cclxKEgP.s 			page 19


 679              		.cfi_offset 3, -16
 680              		.cfi_offset 4, -12
 681              		.cfi_offset 5, -8
 682              		.cfi_offset 14, -4
 683 0002 0446     		mov	r4, r0
 684 0004 1546     		mov	r5, r2
 332:Core/Src/main.c ****   MOTOR_Direction(motor_number, direction);
 685              		.loc 1 332 3 is_stmt 1 view .LVU144
 686 0006 FFF7FEFF 		bl	MOTOR_Direction
 687              	.LVL76:
 333:Core/Src/main.c ****   MOTOR_SpeedRead();
 688              		.loc 1 333 3 view .LVU145
 689 000a FFF7FEFF 		bl	MOTOR_SpeedRead
 690              	.LVL77:
 334:Core/Src/main.c ****   switch (motor_number)
 691              		.loc 1 334 3 view .LVU146
 692 000e 601E     		subs	r0, r4, #1
 693 0010 0328     		cmp	r0, #3
 694 0012 10D8     		bhi	.L35
 695 0014 DFE800F0 		tbb	[pc, r0]
 696              	.L38:
 697 0018 02       		.byte	(.L41-.L38)/2
 698 0019 10       		.byte	(.L40-.L38)/2
 699 001a 1E       		.byte	(.L39-.L38)/2
 700 001b 2C       		.byte	(.L37-.L38)/2
 701              		.p2align 1
 702              	.L41:
 335:Core/Src/main.c ****   {
 336:Core/Src/main.c ****     case 1:
 337:Core/Src/main.c ****       __HAL_TIM_SET_COMPARE(&htim1, TIM_CHANNEL_1, PID_Calculate(pid_speed[1], target_speed, motor[
 703              		.loc 1 337 7 view .LVU147
 704 001c 1B4B     		ldr	r3, .L43
 705 001e D868     		ldr	r0, [r3, #12]
 706 0020 FFF7FEFF 		bl	__aeabi_i2f
 707              	.LVL78:
 708 0024 0246     		mov	r2, r0
 709 0026 2946     		mov	r1, r5
 710 0028 194B     		ldr	r3, .L43+4
 711 002a 5868     		ldr	r0, [r3, #4]
 712 002c FFF7FEFF 		bl	PID_Calculate
 713              	.LVL79:
 714 0030 184B     		ldr	r3, .L43+8
 715 0032 1B68     		ldr	r3, [r3]
 716 0034 5863     		str	r0, [r3, #52]
 338:Core/Src/main.c ****     break;
 717              		.loc 1 338 5 view .LVU148
 718              	.L35:
 339:Core/Src/main.c ****     
 340:Core/Src/main.c ****     case 2:
 341:Core/Src/main.c ****       __HAL_TIM_SET_COMPARE(&htim1, TIM_CHANNEL_2, PID_Calculate(pid_speed[2], target_speed, motor[
 342:Core/Src/main.c ****     break;  
 343:Core/Src/main.c ****     
 344:Core/Src/main.c ****     case 3:
 345:Core/Src/main.c ****       __HAL_TIM_SET_COMPARE(&htim1, TIM_CHANNEL_3, PID_Calculate(pid_speed[3], target_speed, motor[
 346:Core/Src/main.c ****     break;  
 347:Core/Src/main.c ****     
 348:Core/Src/main.c ****     case 4:
ARM GAS  C:\Users\86138\AppData\Local\Temp\cclxKEgP.s 			page 20


 349:Core/Src/main.c ****       __HAL_TIM_SET_COMPARE(&htim1, TIM_CHANNEL_4, PID_Calculate(pid_speed[4], target_speed, motor[
 350:Core/Src/main.c ****     break;
 351:Core/Src/main.c ****   }
 352:Core/Src/main.c **** }
 719              		.loc 1 352 1 is_stmt 0 view .LVU149
 720 0036 38BD     		pop	{r3, r4, r5, pc}
 721              	.LVL80:
 722              	.L40:
 341:Core/Src/main.c ****     break;  
 723              		.loc 1 341 7 is_stmt 1 view .LVU150
 724 0038 144B     		ldr	r3, .L43
 725 003a D868     		ldr	r0, [r3, #12]
 726 003c FFF7FEFF 		bl	__aeabi_i2f
 727              	.LVL81:
 728 0040 0246     		mov	r2, r0
 729 0042 2946     		mov	r1, r5
 730 0044 124B     		ldr	r3, .L43+4
 731 0046 9868     		ldr	r0, [r3, #8]
 732 0048 FFF7FEFF 		bl	PID_Calculate
 733              	.LVL82:
 734 004c 114B     		ldr	r3, .L43+8
 735 004e 1B68     		ldr	r3, [r3]
 736 0050 9863     		str	r0, [r3, #56]
 342:Core/Src/main.c ****     
 737              		.loc 1 342 5 view .LVU151
 738 0052 F0E7     		b	.L35
 739              	.L39:
 345:Core/Src/main.c ****     break;  
 740              		.loc 1 345 7 view .LVU152
 741 0054 0D4B     		ldr	r3, .L43
 742 0056 D868     		ldr	r0, [r3, #12]
 743 0058 FFF7FEFF 		bl	__aeabi_i2f
 744              	.LVL83:
 745 005c 0246     		mov	r2, r0
 746 005e 2946     		mov	r1, r5
 747 0060 0B4B     		ldr	r3, .L43+4
 748 0062 D868     		ldr	r0, [r3, #12]
 749 0064 FFF7FEFF 		bl	PID_Calculate
 750              	.LVL84:
 751 0068 0A4B     		ldr	r3, .L43+8
 752 006a 1B68     		ldr	r3, [r3]
 753 006c D863     		str	r0, [r3, #60]
 346:Core/Src/main.c ****     
 754              		.loc 1 346 5 view .LVU153
 755 006e E2E7     		b	.L35
 756              	.L37:
 349:Core/Src/main.c ****     break;
 757              		.loc 1 349 7 view .LVU154
 758 0070 064B     		ldr	r3, .L43
 759 0072 D868     		ldr	r0, [r3, #12]
 760 0074 FFF7FEFF 		bl	__aeabi_i2f
 761              	.LVL85:
 762 0078 0246     		mov	r2, r0
 763 007a 2946     		mov	r1, r5
 764 007c 044B     		ldr	r3, .L43+4
 765 007e 1869     		ldr	r0, [r3, #16]
 766 0080 FFF7FEFF 		bl	PID_Calculate
ARM GAS  C:\Users\86138\AppData\Local\Temp\cclxKEgP.s 			page 21


 767              	.LVL86:
 768 0084 034B     		ldr	r3, .L43+8
 769 0086 1B68     		ldr	r3, [r3]
 770 0088 1864     		str	r0, [r3, #64]
 350:Core/Src/main.c ****   }
 771              		.loc 1 350 5 view .LVU155
 772              		.loc 1 352 1 is_stmt 0 view .LVU156
 773 008a D4E7     		b	.L35
 774              	.L44:
 775              		.align	2
 776              	.L43:
 777 008c 00000000 		.word	.LANCHOR0
 778 0090 00000000 		.word	.LANCHOR1
 779 0094 00000000 		.word	htim1
 780              		.cfi_endproc
 781              	.LFE72:
 783              		.section	.text.HAL_TIM_PeriodElapsedCallback,"ax",%progbits
 784              		.align	1
 785              		.global	HAL_TIM_PeriodElapsedCallback
 786              		.syntax unified
 787              		.thumb
 788              		.thumb_func
 789              		.fpu softvfp
 791              	HAL_TIM_PeriodElapsedCallback:
 792              	.LVL87:
 793              	.LFB73:
 353:Core/Src/main.c **** 
 354:Core/Src/main.c **** 
 355:Core/Src/main.c **** 
 356:Core/Src/main.c **** /**
 357:Core/Src/main.c ****   * @brief TIM interrupt function
 358:Core/Src/main.c ****   * @param htim：choose the timer that cause the interrupt
 359:Core/Src/main.c ****   */
 360:Core/Src/main.c **** void HAL_TIM_PeriodElapsedCallback(TIM_HandleTypeDef *htim)
 361:Core/Src/main.c **** {
 794              		.loc 1 361 1 is_stmt 1 view -0
 795              		.cfi_startproc
 796              		@ args = 0, pretend = 0, frame = 0
 797              		@ frame_needed = 0, uses_anonymous_args = 0
 798              		.loc 1 361 1 is_stmt 0 view .LVU158
 799 0000 08B5     		push	{r3, lr}
 800              	.LCFI6:
 801              		.cfi_def_cfa_offset 8
 802              		.cfi_offset 3, -8
 803              		.cfi_offset 14, -4
 362:Core/Src/main.c ****   if (htim->Instance == TIM1)
 804              		.loc 1 362 3 is_stmt 1 view .LVU159
 805              		.loc 1 362 11 is_stmt 0 view .LVU160
 806 0002 0268     		ldr	r2, [r0]
 807              		.loc 1 362 6 view .LVU161
 808 0004 044B     		ldr	r3, .L49
 809 0006 9A42     		cmp	r2, r3
 810 0008 00D0     		beq	.L48
 811              	.LVL88:
 812              	.L45:
 363:Core/Src/main.c ****   {
 364:Core/Src/main.c ****     MOTOR_Speedcontrol(1, forward, 25);
ARM GAS  C:\Users\86138\AppData\Local\Temp\cclxKEgP.s 			page 22


 365:Core/Src/main.c ****   }
 366:Core/Src/main.c **** }
 813              		.loc 1 366 1 view .LVU162
 814 000a 08BD     		pop	{r3, pc}
 815              	.LVL89:
 816              	.L48:
 364:Core/Src/main.c ****   }
 817              		.loc 1 364 5 is_stmt 1 view .LVU163
 818 000c 034A     		ldr	r2, .L49+4
 819 000e 0121     		movs	r1, #1
 820 0010 0846     		mov	r0, r1
 821              	.LVL90:
 364:Core/Src/main.c ****   }
 822              		.loc 1 364 5 is_stmt 0 view .LVU164
 823 0012 FFF7FEFF 		bl	MOTOR_Speedcontrol
 824              	.LVL91:
 825              		.loc 1 366 1 view .LVU165
 826 0016 F8E7     		b	.L45
 827              	.L50:
 828              		.align	2
 829              	.L49:
 830 0018 002C0140 		.word	1073818624
 831 001c 0000C841 		.word	1103626240
 832              		.cfi_endproc
 833              	.LFE73:
 835              		.section	.text.Error_Handler,"ax",%progbits
 836              		.align	1
 837              		.global	Error_Handler
 838              		.syntax unified
 839              		.thumb
 840              		.thumb_func
 841              		.fpu softvfp
 843              	Error_Handler:
 844              	.LFB74:
 367:Core/Src/main.c **** 
 368:Core/Src/main.c **** 
 369:Core/Src/main.c **** 
 370:Core/Src/main.c **** /* USER CODE END 4 */
 371:Core/Src/main.c **** 
 372:Core/Src/main.c **** /**
 373:Core/Src/main.c ****   * @brief  This function is executed in case of error occurrence.
 374:Core/Src/main.c ****   * @retval None
 375:Core/Src/main.c ****   */
 376:Core/Src/main.c **** void Error_Handler(void)
 377:Core/Src/main.c **** {
 845              		.loc 1 377 1 is_stmt 1 view -0
 846              		.cfi_startproc
 847              		@ Volatile: function does not return.
 848              		@ args = 0, pretend = 0, frame = 0
 849              		@ frame_needed = 0, uses_anonymous_args = 0
 850              		@ link register save eliminated.
 378:Core/Src/main.c ****   /* USER CODE BEGIN Error_Handler_Debug */
 379:Core/Src/main.c ****   /* User can add his own implementation to report the HAL error return state */
 380:Core/Src/main.c ****   __disable_irq();
 851              		.loc 1 380 3 view .LVU167
 852              	.LBB4:
 853              	.LBI4:
ARM GAS  C:\Users\86138\AppData\Local\Temp\cclxKEgP.s 			page 23


 854              		.file 2 "Drivers/CMSIS/Include/cmsis_gcc.h"
   1:Drivers/CMSIS/Include/cmsis_gcc.h **** /**************************************************************************//**
   2:Drivers/CMSIS/Include/cmsis_gcc.h ****  * @file     cmsis_gcc.h
   3:Drivers/CMSIS/Include/cmsis_gcc.h ****  * @brief    CMSIS compiler GCC header file
   4:Drivers/CMSIS/Include/cmsis_gcc.h ****  * @version  V5.0.4
   5:Drivers/CMSIS/Include/cmsis_gcc.h ****  * @date     09. April 2018
   6:Drivers/CMSIS/Include/cmsis_gcc.h ****  ******************************************************************************/
   7:Drivers/CMSIS/Include/cmsis_gcc.h **** /*
   8:Drivers/CMSIS/Include/cmsis_gcc.h ****  * Copyright (c) 2009-2018 Arm Limited. All rights reserved.
   9:Drivers/CMSIS/Include/cmsis_gcc.h ****  *
  10:Drivers/CMSIS/Include/cmsis_gcc.h ****  * SPDX-License-Identifier: Apache-2.0
  11:Drivers/CMSIS/Include/cmsis_gcc.h ****  *
  12:Drivers/CMSIS/Include/cmsis_gcc.h ****  * Licensed under the Apache License, Version 2.0 (the License); you may
  13:Drivers/CMSIS/Include/cmsis_gcc.h ****  * not use this file except in compliance with the License.
  14:Drivers/CMSIS/Include/cmsis_gcc.h ****  * You may obtain a copy of the License at
  15:Drivers/CMSIS/Include/cmsis_gcc.h ****  *
  16:Drivers/CMSIS/Include/cmsis_gcc.h ****  * www.apache.org/licenses/LICENSE-2.0
  17:Drivers/CMSIS/Include/cmsis_gcc.h ****  *
  18:Drivers/CMSIS/Include/cmsis_gcc.h ****  * Unless required by applicable law or agreed to in writing, software
  19:Drivers/CMSIS/Include/cmsis_gcc.h ****  * distributed under the License is distributed on an AS IS BASIS, WITHOUT
  20:Drivers/CMSIS/Include/cmsis_gcc.h ****  * WARRANTIES OR CONDITIONS OF ANY KIND, either express or implied.
  21:Drivers/CMSIS/Include/cmsis_gcc.h ****  * See the License for the specific language governing permissions and
  22:Drivers/CMSIS/Include/cmsis_gcc.h ****  * limitations under the License.
  23:Drivers/CMSIS/Include/cmsis_gcc.h ****  */
  24:Drivers/CMSIS/Include/cmsis_gcc.h **** 
  25:Drivers/CMSIS/Include/cmsis_gcc.h **** #ifndef __CMSIS_GCC_H
  26:Drivers/CMSIS/Include/cmsis_gcc.h **** #define __CMSIS_GCC_H
  27:Drivers/CMSIS/Include/cmsis_gcc.h **** 
  28:Drivers/CMSIS/Include/cmsis_gcc.h **** /* ignore some GCC warnings */
  29:Drivers/CMSIS/Include/cmsis_gcc.h **** #pragma GCC diagnostic push
  30:Drivers/CMSIS/Include/cmsis_gcc.h **** #pragma GCC diagnostic ignored "-Wsign-conversion"
  31:Drivers/CMSIS/Include/cmsis_gcc.h **** #pragma GCC diagnostic ignored "-Wconversion"
  32:Drivers/CMSIS/Include/cmsis_gcc.h **** #pragma GCC diagnostic ignored "-Wunused-parameter"
  33:Drivers/CMSIS/Include/cmsis_gcc.h **** 
  34:Drivers/CMSIS/Include/cmsis_gcc.h **** /* Fallback for __has_builtin */
  35:Drivers/CMSIS/Include/cmsis_gcc.h **** #ifndef __has_builtin
  36:Drivers/CMSIS/Include/cmsis_gcc.h ****   #define __has_builtin(x) (0)
  37:Drivers/CMSIS/Include/cmsis_gcc.h **** #endif
  38:Drivers/CMSIS/Include/cmsis_gcc.h **** 
  39:Drivers/CMSIS/Include/cmsis_gcc.h **** /* CMSIS compiler specific defines */
  40:Drivers/CMSIS/Include/cmsis_gcc.h **** #ifndef   __ASM
  41:Drivers/CMSIS/Include/cmsis_gcc.h ****   #define __ASM                                  __asm
  42:Drivers/CMSIS/Include/cmsis_gcc.h **** #endif
  43:Drivers/CMSIS/Include/cmsis_gcc.h **** #ifndef   __INLINE
  44:Drivers/CMSIS/Include/cmsis_gcc.h ****   #define __INLINE                               inline
  45:Drivers/CMSIS/Include/cmsis_gcc.h **** #endif
  46:Drivers/CMSIS/Include/cmsis_gcc.h **** #ifndef   __STATIC_INLINE
  47:Drivers/CMSIS/Include/cmsis_gcc.h ****   #define __STATIC_INLINE                        static inline
  48:Drivers/CMSIS/Include/cmsis_gcc.h **** #endif
  49:Drivers/CMSIS/Include/cmsis_gcc.h **** #ifndef   __STATIC_FORCEINLINE                 
  50:Drivers/CMSIS/Include/cmsis_gcc.h ****   #define __STATIC_FORCEINLINE                   __attribute__((always_inline)) static inline
  51:Drivers/CMSIS/Include/cmsis_gcc.h **** #endif                                           
  52:Drivers/CMSIS/Include/cmsis_gcc.h **** #ifndef   __NO_RETURN
  53:Drivers/CMSIS/Include/cmsis_gcc.h ****   #define __NO_RETURN                            __attribute__((__noreturn__))
  54:Drivers/CMSIS/Include/cmsis_gcc.h **** #endif
  55:Drivers/CMSIS/Include/cmsis_gcc.h **** #ifndef   __USED
  56:Drivers/CMSIS/Include/cmsis_gcc.h ****   #define __USED                                 __attribute__((used))
ARM GAS  C:\Users\86138\AppData\Local\Temp\cclxKEgP.s 			page 24


  57:Drivers/CMSIS/Include/cmsis_gcc.h **** #endif
  58:Drivers/CMSIS/Include/cmsis_gcc.h **** #ifndef   __WEAK
  59:Drivers/CMSIS/Include/cmsis_gcc.h ****   #define __WEAK                                 __attribute__((weak))
  60:Drivers/CMSIS/Include/cmsis_gcc.h **** #endif
  61:Drivers/CMSIS/Include/cmsis_gcc.h **** #ifndef   __PACKED
  62:Drivers/CMSIS/Include/cmsis_gcc.h ****   #define __PACKED                               __attribute__((packed, aligned(1)))
  63:Drivers/CMSIS/Include/cmsis_gcc.h **** #endif
  64:Drivers/CMSIS/Include/cmsis_gcc.h **** #ifndef   __PACKED_STRUCT
  65:Drivers/CMSIS/Include/cmsis_gcc.h ****   #define __PACKED_STRUCT                        struct __attribute__((packed, aligned(1)))
  66:Drivers/CMSIS/Include/cmsis_gcc.h **** #endif
  67:Drivers/CMSIS/Include/cmsis_gcc.h **** #ifndef   __PACKED_UNION
  68:Drivers/CMSIS/Include/cmsis_gcc.h ****   #define __PACKED_UNION                         union __attribute__((packed, aligned(1)))
  69:Drivers/CMSIS/Include/cmsis_gcc.h **** #endif
  70:Drivers/CMSIS/Include/cmsis_gcc.h **** #ifndef   __UNALIGNED_UINT32        /* deprecated */
  71:Drivers/CMSIS/Include/cmsis_gcc.h ****   #pragma GCC diagnostic push
  72:Drivers/CMSIS/Include/cmsis_gcc.h ****   #pragma GCC diagnostic ignored "-Wpacked"
  73:Drivers/CMSIS/Include/cmsis_gcc.h ****   #pragma GCC diagnostic ignored "-Wattributes"
  74:Drivers/CMSIS/Include/cmsis_gcc.h ****   struct __attribute__((packed)) T_UINT32 { uint32_t v; };
  75:Drivers/CMSIS/Include/cmsis_gcc.h ****   #pragma GCC diagnostic pop
  76:Drivers/CMSIS/Include/cmsis_gcc.h ****   #define __UNALIGNED_UINT32(x)                  (((struct T_UINT32 *)(x))->v)
  77:Drivers/CMSIS/Include/cmsis_gcc.h **** #endif
  78:Drivers/CMSIS/Include/cmsis_gcc.h **** #ifndef   __UNALIGNED_UINT16_WRITE
  79:Drivers/CMSIS/Include/cmsis_gcc.h ****   #pragma GCC diagnostic push
  80:Drivers/CMSIS/Include/cmsis_gcc.h ****   #pragma GCC diagnostic ignored "-Wpacked"
  81:Drivers/CMSIS/Include/cmsis_gcc.h ****   #pragma GCC diagnostic ignored "-Wattributes"
  82:Drivers/CMSIS/Include/cmsis_gcc.h ****   __PACKED_STRUCT T_UINT16_WRITE { uint16_t v; };
  83:Drivers/CMSIS/Include/cmsis_gcc.h ****   #pragma GCC diagnostic pop
  84:Drivers/CMSIS/Include/cmsis_gcc.h ****   #define __UNALIGNED_UINT16_WRITE(addr, val)    (void)((((struct T_UINT16_WRITE *)(void *)(addr))-
  85:Drivers/CMSIS/Include/cmsis_gcc.h **** #endif
  86:Drivers/CMSIS/Include/cmsis_gcc.h **** #ifndef   __UNALIGNED_UINT16_READ
  87:Drivers/CMSIS/Include/cmsis_gcc.h ****   #pragma GCC diagnostic push
  88:Drivers/CMSIS/Include/cmsis_gcc.h ****   #pragma GCC diagnostic ignored "-Wpacked"
  89:Drivers/CMSIS/Include/cmsis_gcc.h ****   #pragma GCC diagnostic ignored "-Wattributes"
  90:Drivers/CMSIS/Include/cmsis_gcc.h ****   __PACKED_STRUCT T_UINT16_READ { uint16_t v; };
  91:Drivers/CMSIS/Include/cmsis_gcc.h ****   #pragma GCC diagnostic pop
  92:Drivers/CMSIS/Include/cmsis_gcc.h ****   #define __UNALIGNED_UINT16_READ(addr)          (((const struct T_UINT16_READ *)(const void *)(add
  93:Drivers/CMSIS/Include/cmsis_gcc.h **** #endif
  94:Drivers/CMSIS/Include/cmsis_gcc.h **** #ifndef   __UNALIGNED_UINT32_WRITE
  95:Drivers/CMSIS/Include/cmsis_gcc.h ****   #pragma GCC diagnostic push
  96:Drivers/CMSIS/Include/cmsis_gcc.h ****   #pragma GCC diagnostic ignored "-Wpacked"
  97:Drivers/CMSIS/Include/cmsis_gcc.h ****   #pragma GCC diagnostic ignored "-Wattributes"
  98:Drivers/CMSIS/Include/cmsis_gcc.h ****   __PACKED_STRUCT T_UINT32_WRITE { uint32_t v; };
  99:Drivers/CMSIS/Include/cmsis_gcc.h ****   #pragma GCC diagnostic pop
 100:Drivers/CMSIS/Include/cmsis_gcc.h ****   #define __UNALIGNED_UINT32_WRITE(addr, val)    (void)((((struct T_UINT32_WRITE *)(void *)(addr))-
 101:Drivers/CMSIS/Include/cmsis_gcc.h **** #endif
 102:Drivers/CMSIS/Include/cmsis_gcc.h **** #ifndef   __UNALIGNED_UINT32_READ
 103:Drivers/CMSIS/Include/cmsis_gcc.h ****   #pragma GCC diagnostic push
 104:Drivers/CMSIS/Include/cmsis_gcc.h ****   #pragma GCC diagnostic ignored "-Wpacked"
 105:Drivers/CMSIS/Include/cmsis_gcc.h ****   #pragma GCC diagnostic ignored "-Wattributes"
 106:Drivers/CMSIS/Include/cmsis_gcc.h ****   __PACKED_STRUCT T_UINT32_READ { uint32_t v; };
 107:Drivers/CMSIS/Include/cmsis_gcc.h ****   #pragma GCC diagnostic pop
 108:Drivers/CMSIS/Include/cmsis_gcc.h ****   #define __UNALIGNED_UINT32_READ(addr)          (((const struct T_UINT32_READ *)(const void *)(add
 109:Drivers/CMSIS/Include/cmsis_gcc.h **** #endif
 110:Drivers/CMSIS/Include/cmsis_gcc.h **** #ifndef   __ALIGNED
 111:Drivers/CMSIS/Include/cmsis_gcc.h ****   #define __ALIGNED(x)                           __attribute__((aligned(x)))
 112:Drivers/CMSIS/Include/cmsis_gcc.h **** #endif
 113:Drivers/CMSIS/Include/cmsis_gcc.h **** #ifndef   __RESTRICT
ARM GAS  C:\Users\86138\AppData\Local\Temp\cclxKEgP.s 			page 25


 114:Drivers/CMSIS/Include/cmsis_gcc.h ****   #define __RESTRICT                             __restrict
 115:Drivers/CMSIS/Include/cmsis_gcc.h **** #endif
 116:Drivers/CMSIS/Include/cmsis_gcc.h **** 
 117:Drivers/CMSIS/Include/cmsis_gcc.h **** 
 118:Drivers/CMSIS/Include/cmsis_gcc.h **** /* ###########################  Core Function Access  ########################### */
 119:Drivers/CMSIS/Include/cmsis_gcc.h **** /** \ingroup  CMSIS_Core_FunctionInterface
 120:Drivers/CMSIS/Include/cmsis_gcc.h ****     \defgroup CMSIS_Core_RegAccFunctions CMSIS Core Register Access Functions
 121:Drivers/CMSIS/Include/cmsis_gcc.h ****   @{
 122:Drivers/CMSIS/Include/cmsis_gcc.h ****  */
 123:Drivers/CMSIS/Include/cmsis_gcc.h **** 
 124:Drivers/CMSIS/Include/cmsis_gcc.h **** /**
 125:Drivers/CMSIS/Include/cmsis_gcc.h ****   \brief   Enable IRQ Interrupts
 126:Drivers/CMSIS/Include/cmsis_gcc.h ****   \details Enables IRQ interrupts by clearing the I-bit in the CPSR.
 127:Drivers/CMSIS/Include/cmsis_gcc.h ****            Can only be executed in Privileged modes.
 128:Drivers/CMSIS/Include/cmsis_gcc.h ****  */
 129:Drivers/CMSIS/Include/cmsis_gcc.h **** __STATIC_FORCEINLINE void __enable_irq(void)
 130:Drivers/CMSIS/Include/cmsis_gcc.h **** {
 131:Drivers/CMSIS/Include/cmsis_gcc.h ****   __ASM volatile ("cpsie i" : : : "memory");
 132:Drivers/CMSIS/Include/cmsis_gcc.h **** }
 133:Drivers/CMSIS/Include/cmsis_gcc.h **** 
 134:Drivers/CMSIS/Include/cmsis_gcc.h **** 
 135:Drivers/CMSIS/Include/cmsis_gcc.h **** /**
 136:Drivers/CMSIS/Include/cmsis_gcc.h ****   \brief   Disable IRQ Interrupts
 137:Drivers/CMSIS/Include/cmsis_gcc.h ****   \details Disables IRQ interrupts by setting the I-bit in the CPSR.
 138:Drivers/CMSIS/Include/cmsis_gcc.h ****            Can only be executed in Privileged modes.
 139:Drivers/CMSIS/Include/cmsis_gcc.h ****  */
 140:Drivers/CMSIS/Include/cmsis_gcc.h **** __STATIC_FORCEINLINE void __disable_irq(void)
 855              		.loc 2 140 27 view .LVU168
 856              	.LBB5:
 141:Drivers/CMSIS/Include/cmsis_gcc.h **** {
 142:Drivers/CMSIS/Include/cmsis_gcc.h ****   __ASM volatile ("cpsid i" : : : "memory");
 857              		.loc 2 142 3 view .LVU169
 858              		.syntax unified
 859              	@ 142 "Drivers/CMSIS/Include/cmsis_gcc.h" 1
 860 0000 72B6     		cpsid i
 861              	@ 0 "" 2
 862              		.thumb
 863              		.syntax unified
 864              	.L52:
 865              	.LBE5:
 866              	.LBE4:
 381:Core/Src/main.c ****   while (1)
 867              		.loc 1 381 3 discriminator 1 view .LVU170
 382:Core/Src/main.c ****   {
 383:Core/Src/main.c ****   }
 868              		.loc 1 383 3 discriminator 1 view .LVU171
 381:Core/Src/main.c ****   while (1)
 869              		.loc 1 381 9 discriminator 1 view .LVU172
 870 0002 FEE7     		b	.L52
 871              		.cfi_endproc
 872              	.LFE74:
 874              		.section	.text.SystemClock_Config,"ax",%progbits
 875              		.align	1
 876              		.global	SystemClock_Config
 877              		.syntax unified
 878              		.thumb
 879              		.thumb_func
ARM GAS  C:\Users\86138\AppData\Local\Temp\cclxKEgP.s 			page 26


 880              		.fpu softvfp
 882              	SystemClock_Config:
 883              	.LFB66:
 163:Core/Src/main.c ****   RCC_OscInitTypeDef RCC_OscInitStruct = {0};
 884              		.loc 1 163 1 view -0
 885              		.cfi_startproc
 886              		@ args = 0, pretend = 0, frame = 64
 887              		@ frame_needed = 0, uses_anonymous_args = 0
 888 0000 00B5     		push	{lr}
 889              	.LCFI7:
 890              		.cfi_def_cfa_offset 4
 891              		.cfi_offset 14, -4
 892 0002 91B0     		sub	sp, sp, #68
 893              	.LCFI8:
 894              		.cfi_def_cfa_offset 72
 164:Core/Src/main.c ****   RCC_ClkInitTypeDef RCC_ClkInitStruct = {0};
 895              		.loc 1 164 3 view .LVU174
 164:Core/Src/main.c ****   RCC_ClkInitTypeDef RCC_ClkInitStruct = {0};
 896              		.loc 1 164 22 is_stmt 0 view .LVU175
 897 0004 2822     		movs	r2, #40
 898 0006 0021     		movs	r1, #0
 899 0008 06A8     		add	r0, sp, #24
 900 000a FFF7FEFF 		bl	memset
 901              	.LVL92:
 165:Core/Src/main.c **** 
 902              		.loc 1 165 3 is_stmt 1 view .LVU176
 165:Core/Src/main.c **** 
 903              		.loc 1 165 22 is_stmt 0 view .LVU177
 904 000e 0023     		movs	r3, #0
 905 0010 0193     		str	r3, [sp, #4]
 906 0012 0293     		str	r3, [sp, #8]
 907 0014 0393     		str	r3, [sp, #12]
 908 0016 0493     		str	r3, [sp, #16]
 909 0018 0593     		str	r3, [sp, #20]
 170:Core/Src/main.c ****   RCC_OscInitStruct.HSEState = RCC_HSE_ON;
 910              		.loc 1 170 3 is_stmt 1 view .LVU178
 170:Core/Src/main.c ****   RCC_OscInitStruct.HSEState = RCC_HSE_ON;
 911              		.loc 1 170 36 is_stmt 0 view .LVU179
 912 001a 0122     		movs	r2, #1
 913 001c 0692     		str	r2, [sp, #24]
 171:Core/Src/main.c ****   RCC_OscInitStruct.HSEPredivValue = RCC_HSE_PREDIV_DIV1;
 914              		.loc 1 171 3 is_stmt 1 view .LVU180
 171:Core/Src/main.c ****   RCC_OscInitStruct.HSEPredivValue = RCC_HSE_PREDIV_DIV1;
 915              		.loc 1 171 30 is_stmt 0 view .LVU181
 916 001e 4FF48033 		mov	r3, #65536
 917 0022 0793     		str	r3, [sp, #28]
 172:Core/Src/main.c ****   RCC_OscInitStruct.HSIState = RCC_HSI_ON;
 918              		.loc 1 172 3 is_stmt 1 view .LVU182
 173:Core/Src/main.c ****   RCC_OscInitStruct.PLL.PLLState = RCC_PLL_ON;
 919              		.loc 1 173 3 view .LVU183
 173:Core/Src/main.c ****   RCC_OscInitStruct.PLL.PLLState = RCC_PLL_ON;
 920              		.loc 1 173 30 is_stmt 0 view .LVU184
 921 0024 0A92     		str	r2, [sp, #40]
 174:Core/Src/main.c ****   RCC_OscInitStruct.PLL.PLLSource = RCC_PLLSOURCE_HSE;
 922              		.loc 1 174 3 is_stmt 1 view .LVU185
 174:Core/Src/main.c ****   RCC_OscInitStruct.PLL.PLLSource = RCC_PLLSOURCE_HSE;
 923              		.loc 1 174 34 is_stmt 0 view .LVU186
ARM GAS  C:\Users\86138\AppData\Local\Temp\cclxKEgP.s 			page 27


 924 0026 0222     		movs	r2, #2
 925 0028 0D92     		str	r2, [sp, #52]
 175:Core/Src/main.c ****   RCC_OscInitStruct.PLL.PLLMUL = RCC_PLL_MUL9;
 926              		.loc 1 175 3 is_stmt 1 view .LVU187
 175:Core/Src/main.c ****   RCC_OscInitStruct.PLL.PLLMUL = RCC_PLL_MUL9;
 927              		.loc 1 175 35 is_stmt 0 view .LVU188
 928 002a 0E93     		str	r3, [sp, #56]
 176:Core/Src/main.c ****   if (HAL_RCC_OscConfig(&RCC_OscInitStruct) != HAL_OK)
 929              		.loc 1 176 3 is_stmt 1 view .LVU189
 176:Core/Src/main.c ****   if (HAL_RCC_OscConfig(&RCC_OscInitStruct) != HAL_OK)
 930              		.loc 1 176 32 is_stmt 0 view .LVU190
 931 002c 4FF4E013 		mov	r3, #1835008
 932 0030 0F93     		str	r3, [sp, #60]
 177:Core/Src/main.c ****   {
 933              		.loc 1 177 3 is_stmt 1 view .LVU191
 177:Core/Src/main.c ****   {
 934              		.loc 1 177 7 is_stmt 0 view .LVU192
 935 0032 06A8     		add	r0, sp, #24
 936 0034 FFF7FEFF 		bl	HAL_RCC_OscConfig
 937              	.LVL93:
 177:Core/Src/main.c ****   {
 938              		.loc 1 177 6 view .LVU193
 939 0038 80B9     		cbnz	r0, .L57
 184:Core/Src/main.c ****                               |RCC_CLOCKTYPE_PCLK1|RCC_CLOCKTYPE_PCLK2;
 940              		.loc 1 184 3 is_stmt 1 view .LVU194
 184:Core/Src/main.c ****                               |RCC_CLOCKTYPE_PCLK1|RCC_CLOCKTYPE_PCLK2;
 941              		.loc 1 184 31 is_stmt 0 view .LVU195
 942 003a 0F23     		movs	r3, #15
 943 003c 0193     		str	r3, [sp, #4]
 186:Core/Src/main.c ****   RCC_ClkInitStruct.AHBCLKDivider = RCC_SYSCLK_DIV1;
 944              		.loc 1 186 3 is_stmt 1 view .LVU196
 186:Core/Src/main.c ****   RCC_ClkInitStruct.AHBCLKDivider = RCC_SYSCLK_DIV1;
 945              		.loc 1 186 34 is_stmt 0 view .LVU197
 946 003e 0221     		movs	r1, #2
 947 0040 0291     		str	r1, [sp, #8]
 187:Core/Src/main.c ****   RCC_ClkInitStruct.APB1CLKDivider = RCC_HCLK_DIV2;
 948              		.loc 1 187 3 is_stmt 1 view .LVU198
 187:Core/Src/main.c ****   RCC_ClkInitStruct.APB1CLKDivider = RCC_HCLK_DIV2;
 949              		.loc 1 187 35 is_stmt 0 view .LVU199
 950 0042 0023     		movs	r3, #0
 951 0044 0393     		str	r3, [sp, #12]
 188:Core/Src/main.c ****   RCC_ClkInitStruct.APB2CLKDivider = RCC_HCLK_DIV1;
 952              		.loc 1 188 3 is_stmt 1 view .LVU200
 188:Core/Src/main.c ****   RCC_ClkInitStruct.APB2CLKDivider = RCC_HCLK_DIV1;
 953              		.loc 1 188 36 is_stmt 0 view .LVU201
 954 0046 4FF48062 		mov	r2, #1024
 955 004a 0492     		str	r2, [sp, #16]
 189:Core/Src/main.c **** 
 956              		.loc 1 189 3 is_stmt 1 view .LVU202
 189:Core/Src/main.c **** 
 957              		.loc 1 189 36 is_stmt 0 view .LVU203
 958 004c 0593     		str	r3, [sp, #20]
 191:Core/Src/main.c ****   {
 959              		.loc 1 191 3 is_stmt 1 view .LVU204
 191:Core/Src/main.c ****   {
 960              		.loc 1 191 7 is_stmt 0 view .LVU205
 961 004e 01A8     		add	r0, sp, #4
ARM GAS  C:\Users\86138\AppData\Local\Temp\cclxKEgP.s 			page 28


 962 0050 FFF7FEFF 		bl	HAL_RCC_ClockConfig
 963              	.LVL94:
 191:Core/Src/main.c ****   {
 964              		.loc 1 191 6 view .LVU206
 965 0054 20B9     		cbnz	r0, .L58
 195:Core/Src/main.c **** 
 966              		.loc 1 195 1 view .LVU207
 967 0056 11B0     		add	sp, sp, #68
 968              	.LCFI9:
 969              		.cfi_remember_state
 970              		.cfi_def_cfa_offset 4
 971              		@ sp needed
 972 0058 5DF804FB 		ldr	pc, [sp], #4
 973              	.L57:
 974              	.LCFI10:
 975              		.cfi_restore_state
 179:Core/Src/main.c ****   }
 976              		.loc 1 179 5 is_stmt 1 view .LVU208
 977 005c FFF7FEFF 		bl	Error_Handler
 978              	.LVL95:
 979              	.L58:
 193:Core/Src/main.c ****   }
 980              		.loc 1 193 5 view .LVU209
 981 0060 FFF7FEFF 		bl	Error_Handler
 982              	.LVL96:
 983              		.cfi_endproc
 984              	.LFE66:
 986              		.section	.text.main,"ax",%progbits
 987              		.align	1
 988              		.global	main
 989              		.syntax unified
 990              		.thumb
 991              		.thumb_func
 992              		.fpu softvfp
 994              	main:
 995              	.LFB65:
  99:Core/Src/main.c ****   /* USER CODE BEGIN 1 */
 996              		.loc 1 99 1 view -0
 997              		.cfi_startproc
 998              		@ Volatile: function does not return.
 999              		@ args = 0, pretend = 0, frame = 0
 1000              		@ frame_needed = 0, uses_anonymous_args = 0
 1001 0000 08B5     		push	{r3, lr}
 1002              	.LCFI11:
 1003              		.cfi_def_cfa_offset 8
 1004              		.cfi_offset 3, -8
 1005              		.cfi_offset 14, -4
 107:Core/Src/main.c **** 
 1006              		.loc 1 107 3 view .LVU211
 1007 0002 FFF7FEFF 		bl	HAL_Init
 1008              	.LVL97:
 114:Core/Src/main.c **** 
 1009              		.loc 1 114 3 view .LVU212
 1010 0006 FFF7FEFF 		bl	SystemClock_Config
 1011              	.LVL98:
 121:Core/Src/main.c ****   MX_DMA_Init();
 1012              		.loc 1 121 3 view .LVU213
ARM GAS  C:\Users\86138\AppData\Local\Temp\cclxKEgP.s 			page 29


 1013 000a FFF7FEFF 		bl	MX_GPIO_Init
 1014              	.LVL99:
 122:Core/Src/main.c ****   MX_TIM1_Init();
 1015              		.loc 1 122 3 view .LVU214
 1016 000e FFF7FEFF 		bl	MX_DMA_Init
 1017              	.LVL100:
 123:Core/Src/main.c ****   MX_TIM2_Init();
 1018              		.loc 1 123 3 view .LVU215
 1019 0012 FFF7FEFF 		bl	MX_TIM1_Init
 1020              	.LVL101:
 124:Core/Src/main.c ****   MX_TIM3_Init();
 1021              		.loc 1 124 3 view .LVU216
 1022 0016 FFF7FEFF 		bl	MX_TIM2_Init
 1023              	.LVL102:
 125:Core/Src/main.c ****   MX_TIM4_Init();
 1024              		.loc 1 125 3 view .LVU217
 1025 001a FFF7FEFF 		bl	MX_TIM3_Init
 1026              	.LVL103:
 126:Core/Src/main.c ****   MX_TIM5_Init();
 1027              		.loc 1 126 3 view .LVU218
 1028 001e FFF7FEFF 		bl	MX_TIM4_Init
 1029              	.LVL104:
 127:Core/Src/main.c ****   MX_UART4_Init();
 1030              		.loc 1 127 3 view .LVU219
 1031 0022 FFF7FEFF 		bl	MX_TIM5_Init
 1032              	.LVL105:
 128:Core/Src/main.c ****   MX_UART5_Init();
 1033              		.loc 1 128 3 view .LVU220
 1034 0026 FFF7FEFF 		bl	MX_UART4_Init
 1035              	.LVL106:
 129:Core/Src/main.c ****   /* USER CODE BEGIN 2 */
 1036              		.loc 1 129 3 view .LVU221
 1037 002a FFF7FEFF 		bl	MX_UART5_Init
 1038              	.LVL107:
 131:Core/Src/main.c ****   HAL_TIM_Base_Start_IT(&htim1);
 1039              		.loc 1 131 3 view .LVU222
 1040 002e 174C     		ldr	r4, .L62
 1041 0030 2368     		ldr	r3, [r4]
 1042 0032 6FF00102 		mvn	r2, #1
 1043 0036 1A61     		str	r2, [r3, #16]
 132:Core/Src/main.c ****   HAL_TIM_PWM_Start(&htim1, TIM_CHANNEL_1);
 1044              		.loc 1 132 3 view .LVU223
 1045 0038 2046     		mov	r0, r4
 1046 003a FFF7FEFF 		bl	HAL_TIM_Base_Start_IT
 1047              	.LVL108:
 133:Core/Src/main.c ****   HAL_TIM_PWM_Start(&htim1, TIM_CHANNEL_2);
 1048              		.loc 1 133 3 view .LVU224
 1049 003e 0021     		movs	r1, #0
 1050 0040 2046     		mov	r0, r4
 1051 0042 FFF7FEFF 		bl	HAL_TIM_PWM_Start
 1052              	.LVL109:
 134:Core/Src/main.c ****   HAL_TIM_PWM_Start(&htim1, TIM_CHANNEL_3);
 1053              		.loc 1 134 3 view .LVU225
 1054 0046 0421     		movs	r1, #4
 1055 0048 2046     		mov	r0, r4
 1056 004a FFF7FEFF 		bl	HAL_TIM_PWM_Start
 1057              	.LVL110:
ARM GAS  C:\Users\86138\AppData\Local\Temp\cclxKEgP.s 			page 30


 135:Core/Src/main.c ****   HAL_TIM_PWM_Start(&htim1, TIM_CHANNEL_4);
 1058              		.loc 1 135 3 view .LVU226
 1059 004e 0821     		movs	r1, #8
 1060 0050 2046     		mov	r0, r4
 1061 0052 FFF7FEFF 		bl	HAL_TIM_PWM_Start
 1062              	.LVL111:
 136:Core/Src/main.c **** 
 1063              		.loc 1 136 3 view .LVU227
 1064 0056 0C21     		movs	r1, #12
 1065 0058 2046     		mov	r0, r4
 1066 005a FFF7FEFF 		bl	HAL_TIM_PWM_Start
 1067              	.LVL112:
 138:Core/Src/main.c ****   HAL_TIM_Encoder_Start(&htim3, TIM_CHANNEL_ALL);
 1068              		.loc 1 138 3 view .LVU228
 1069 005e 3C21     		movs	r1, #60
 1070 0060 0B48     		ldr	r0, .L62+4
 1071 0062 FFF7FEFF 		bl	HAL_TIM_Encoder_Start
 1072              	.LVL113:
 139:Core/Src/main.c ****   HAL_TIM_Encoder_Start(&htim4, TIM_CHANNEL_ALL);
 1073              		.loc 1 139 3 view .LVU229
 1074 0066 3C21     		movs	r1, #60
 1075 0068 0A48     		ldr	r0, .L62+8
 1076 006a FFF7FEFF 		bl	HAL_TIM_Encoder_Start
 1077              	.LVL114:
 140:Core/Src/main.c ****   HAL_TIM_Encoder_Start(&htim5, TIM_CHANNEL_ALL);
 1078              		.loc 1 140 3 view .LVU230
 1079 006e 3C21     		movs	r1, #60
 1080 0070 0948     		ldr	r0, .L62+12
 1081 0072 FFF7FEFF 		bl	HAL_TIM_Encoder_Start
 1082              	.LVL115:
 141:Core/Src/main.c ****   PID_Init(pid_speed, 10, 3, 0);
 1083              		.loc 1 141 3 view .LVU231
 1084 0076 3C21     		movs	r1, #60
 1085 0078 0848     		ldr	r0, .L62+16
 1086 007a FFF7FEFF 		bl	HAL_TIM_Encoder_Start
 1087              	.LVL116:
 142:Core/Src/main.c ****   /* USER CODE END 2 */
 1088              		.loc 1 142 3 view .LVU232
 1089 007e 0023     		movs	r3, #0
 1090 0080 0322     		movs	r2, #3
 1091 0082 0A21     		movs	r1, #10
 1092 0084 0648     		ldr	r0, .L62+20
 1093 0086 FFF7FEFF 		bl	PID_Init
 1094              	.LVL117:
 1095              	.L60:
 147:Core/Src/main.c ****   {
 1096              		.loc 1 147 3 discriminator 1 view .LVU233
 154:Core/Src/main.c ****   /* USER CODE END 3 */
 1097              		.loc 1 154 3 discriminator 1 view .LVU234
 147:Core/Src/main.c ****   {
 1098              		.loc 1 147 9 discriminator 1 view .LVU235
 1099 008a FEE7     		b	.L60
 1100              	.L63:
 1101              		.align	2
 1102              	.L62:
 1103 008c 00000000 		.word	htim1
 1104 0090 00000000 		.word	htim2
ARM GAS  C:\Users\86138\AppData\Local\Temp\cclxKEgP.s 			page 31


 1105 0094 00000000 		.word	htim3
 1106 0098 00000000 		.word	htim4
 1107 009c 00000000 		.word	htim5
 1108 00a0 00000000 		.word	.LANCHOR1
 1109              		.cfi_endproc
 1110              	.LFE65:
 1112              		.global	RxBuffer
 1113              		.global	pid_ordinate
 1114              		.global	pid_rotate
 1115              		.global	pid_speed
 1116              		.global	motor
 1117              		.section	.bss.RxBuffer,"aw",%nobits
 1118              		.align	2
 1121              	RxBuffer:
 1122 0000 00000000 		.space	10
 1122      00000000 
 1122      0000
 1123              		.section	.bss.motor,"aw",%nobits
 1124              		.align	2
 1125              		.set	.LANCHOR0,. + 0
 1128              	motor:
 1129 0000 00000000 		.space	40
 1129      00000000 
 1129      00000000 
 1129      00000000 
 1129      00000000 
 1130              		.section	.bss.pid_ordinate,"aw",%nobits
 1131              		.align	2
 1134              	pid_ordinate:
 1135 0000 00000000 		.space	4
 1136              		.section	.bss.pid_rotate,"aw",%nobits
 1137              		.align	2
 1140              	pid_rotate:
 1141 0000 00000000 		.space	4
 1142              		.section	.bss.pid_speed,"aw",%nobits
 1143              		.align	2
 1144              		.set	.LANCHOR1,. + 0
 1147              	pid_speed:
 1148 0000 00000000 		.space	20
 1148      00000000 
 1148      00000000 
 1148      00000000 
 1148      00000000 
 1149              		.text
 1150              	.Letext0:
 1151              		.file 3 "c:\\program files (x86)\\gnu arm embedded toolchain\\10 2021.07\\arm-none-eabi\\include\\
 1152              		.file 4 "c:\\program files (x86)\\gnu arm embedded toolchain\\10 2021.07\\arm-none-eabi\\include\\
 1153              		.file 5 "Drivers/CMSIS/Device/ST/STM32F1xx/Include/stm32f103xe.h"
 1154              		.file 6 "Drivers/STM32F1xx_HAL_Driver/Inc/stm32f1xx_hal_def.h"
 1155              		.file 7 "Drivers/STM32F1xx_HAL_Driver/Inc/stm32f1xx_hal_rcc.h"
 1156              		.file 8 "Drivers/STM32F1xx_HAL_Driver/Inc/stm32f1xx_hal_rcc_ex.h"
 1157              		.file 9 "Drivers/STM32F1xx_HAL_Driver/Inc/stm32f1xx_hal_dma.h"
 1158              		.file 10 "Drivers/STM32F1xx_HAL_Driver/Inc/stm32f1xx_hal_tim.h"
 1159              		.file 11 "Core/Inc/tim.h"
 1160              		.file 12 "Core/Inc/usart.h"
 1161              		.file 13 "Drivers/STM32F1xx_HAL_Driver/Inc/stm32f1xx_hal_gpio.h"
 1162              		.file 14 "Drivers/STM32F1xx_HAL_Driver/Inc/stm32f1xx_hal.h"
ARM GAS  C:\Users\86138\AppData\Local\Temp\cclxKEgP.s 			page 32


 1163              		.file 15 "Core/Inc/gpio.h"
 1164              		.file 16 "Core/Inc/dma.h"
 1165              		.file 17 "<built-in>"
ARM GAS  C:\Users\86138\AppData\Local\Temp\cclxKEgP.s 			page 33


DEFINED SYMBOLS
                            *ABS*:00000000 main.c
C:\Users\86138\AppData\Local\Temp\cclxKEgP.s:16     .text.MOTOR_Direction:00000000 $t
C:\Users\86138\AppData\Local\Temp\cclxKEgP.s:24     .text.MOTOR_Direction:00000000 MOTOR_Direction
C:\Users\86138\AppData\Local\Temp\cclxKEgP.s:55     .text.MOTOR_Direction:00000018 $d
C:\Users\86138\AppData\Local\Temp\cclxKEgP.s:59     .text.MOTOR_Direction:0000001c $t
C:\Users\86138\AppData\Local\Temp\cclxKEgP.s:157    .text.MOTOR_Direction:00000092 $d
C:\Users\86138\AppData\Local\Temp\cclxKEgP.s:161    .text.MOTOR_Direction:00000096 $t
C:\Users\86138\AppData\Local\Temp\cclxKEgP.s:230    .text.MOTOR_Direction:00000100 $d
C:\Users\86138\AppData\Local\Temp\cclxKEgP.s:243    .rodata.MOTOR_SpeedRead.str1.4:00000000 $d
C:\Users\86138\AppData\Local\Temp\cclxKEgP.s:247    .text.MOTOR_SpeedRead:00000000 $t
C:\Users\86138\AppData\Local\Temp\cclxKEgP.s:254    .text.MOTOR_SpeedRead:00000000 MOTOR_SpeedRead
C:\Users\86138\AppData\Local\Temp\cclxKEgP.s:440    .text.MOTOR_SpeedRead:00000108 $d
C:\Users\86138\AppData\Local\Temp\cclxKEgP.s:454    .text.PID_Init:00000000 $t
C:\Users\86138\AppData\Local\Temp\cclxKEgP.s:461    .text.PID_Init:00000000 PID_Init
C:\Users\86138\AppData\Local\Temp\cclxKEgP.s:484    .text.PID_Clear:00000000 $t
C:\Users\86138\AppData\Local\Temp\cclxKEgP.s:491    .text.PID_Clear:00000000 PID_Clear
C:\Users\86138\AppData\Local\Temp\cclxKEgP.s:524    .text.PID_Calculate:00000000 $t
C:\Users\86138\AppData\Local\Temp\cclxKEgP.s:531    .text.PID_Calculate:00000000 PID_Calculate
C:\Users\86138\AppData\Local\Temp\cclxKEgP.s:654    .text.PID_Calculate:0000008c $d
C:\Users\86138\AppData\Local\Temp\cclxKEgP.s:661    .text.MOTOR_Speedcontrol:00000000 $t
C:\Users\86138\AppData\Local\Temp\cclxKEgP.s:668    .text.MOTOR_Speedcontrol:00000000 MOTOR_Speedcontrol
C:\Users\86138\AppData\Local\Temp\cclxKEgP.s:697    .text.MOTOR_Speedcontrol:00000018 $d
C:\Users\86138\AppData\Local\Temp\cclxKEgP.s:701    .text.MOTOR_Speedcontrol:0000001c $t
C:\Users\86138\AppData\Local\Temp\cclxKEgP.s:777    .text.MOTOR_Speedcontrol:0000008c $d
C:\Users\86138\AppData\Local\Temp\cclxKEgP.s:784    .text.HAL_TIM_PeriodElapsedCallback:00000000 $t
C:\Users\86138\AppData\Local\Temp\cclxKEgP.s:791    .text.HAL_TIM_PeriodElapsedCallback:00000000 HAL_TIM_PeriodElapsedCallback
C:\Users\86138\AppData\Local\Temp\cclxKEgP.s:830    .text.HAL_TIM_PeriodElapsedCallback:00000018 $d
C:\Users\86138\AppData\Local\Temp\cclxKEgP.s:836    .text.Error_Handler:00000000 $t
C:\Users\86138\AppData\Local\Temp\cclxKEgP.s:843    .text.Error_Handler:00000000 Error_Handler
C:\Users\86138\AppData\Local\Temp\cclxKEgP.s:875    .text.SystemClock_Config:00000000 $t
C:\Users\86138\AppData\Local\Temp\cclxKEgP.s:882    .text.SystemClock_Config:00000000 SystemClock_Config
C:\Users\86138\AppData\Local\Temp\cclxKEgP.s:987    .text.main:00000000 $t
C:\Users\86138\AppData\Local\Temp\cclxKEgP.s:994    .text.main:00000000 main
C:\Users\86138\AppData\Local\Temp\cclxKEgP.s:1103   .text.main:0000008c $d
C:\Users\86138\AppData\Local\Temp\cclxKEgP.s:1121   .bss.RxBuffer:00000000 RxBuffer
C:\Users\86138\AppData\Local\Temp\cclxKEgP.s:1134   .bss.pid_ordinate:00000000 pid_ordinate
C:\Users\86138\AppData\Local\Temp\cclxKEgP.s:1140   .bss.pid_rotate:00000000 pid_rotate
C:\Users\86138\AppData\Local\Temp\cclxKEgP.s:1147   .bss.pid_speed:00000000 pid_speed
C:\Users\86138\AppData\Local\Temp\cclxKEgP.s:1128   .bss.motor:00000000 motor
C:\Users\86138\AppData\Local\Temp\cclxKEgP.s:1118   .bss.RxBuffer:00000000 $d
C:\Users\86138\AppData\Local\Temp\cclxKEgP.s:1124   .bss.motor:00000000 $d
C:\Users\86138\AppData\Local\Temp\cclxKEgP.s:1131   .bss.pid_ordinate:00000000 $d
C:\Users\86138\AppData\Local\Temp\cclxKEgP.s:1137   .bss.pid_rotate:00000000 $d
C:\Users\86138\AppData\Local\Temp\cclxKEgP.s:1143   .bss.pid_speed:00000000 $d

UNDEFINED SYMBOLS
HAL_GPIO_WritePin
__aeabi_ui2f
__aeabi_fmul
__aeabi_f2d
__aeabi_ddiv
__aeabi_dmul
__aeabi_d2iz
u5_printf
htim2
htim3
ARM GAS  C:\Users\86138\AppData\Local\Temp\cclxKEgP.s 			page 34


htim4
htim5
__aeabi_fsub
__aeabi_fadd
__aeabi_fcmpgt
__aeabi_fcmplt
__aeabi_fcmpeq
__aeabi_f2iz
__aeabi_i2f
htim1
memset
HAL_RCC_OscConfig
HAL_RCC_ClockConfig
HAL_Init
MX_GPIO_Init
MX_DMA_Init
MX_TIM1_Init
MX_TIM2_Init
MX_TIM3_Init
MX_TIM4_Init
MX_TIM5_Init
MX_UART4_Init
MX_UART5_Init
HAL_TIM_Base_Start_IT
HAL_TIM_PWM_Start
HAL_TIM_Encoder_Start
