ARM GAS  C:\Users\86138\AppData\Local\Temp\ccDRy3Nk.s 			page 1


   1              		.cpu cortex-m3
   2              		.eabi_attribute 20, 1
   3              		.eabi_attribute 21, 1
   4              		.eabi_attribute 23, 3
   5              		.eabi_attribute 24, 1
   6              		.eabi_attribute 25, 1
   7              		.eabi_attribute 26, 1
   8              		.eabi_attribute 30, 1
   9              		.eabi_attribute 34, 1
  10              		.eabi_attribute 18, 4
  11              		.file	"usart.c"
  12              		.text
  13              	.Ltext0:
  14              		.cfi_sections	.debug_frame
  15              		.section	.text.MX_UART4_Init,"ax",%progbits
  16              		.align	1
  17              		.global	MX_UART4_Init
  18              		.arch armv7-m
  19              		.syntax unified
  20              		.thumb
  21              		.thumb_func
  22              		.fpu softvfp
  24              	MX_UART4_Init:
  25              	.LFB68:
  26              		.file 1 "Core/Src/usart.c"
   1:Core/Src/usart.c **** /* USER CODE BEGIN Header */
   2:Core/Src/usart.c **** /**
   3:Core/Src/usart.c ****   ******************************************************************************
   4:Core/Src/usart.c ****   * @file    usart.c
   5:Core/Src/usart.c ****   * @brief   This file provides code for the configuration
   6:Core/Src/usart.c ****   *          of the USART instances.
   7:Core/Src/usart.c ****   ******************************************************************************
   8:Core/Src/usart.c ****   * @attention
   9:Core/Src/usart.c ****   *
  10:Core/Src/usart.c ****   * Copyright (c) 2022 STMicroelectronics.
  11:Core/Src/usart.c ****   * All rights reserved.
  12:Core/Src/usart.c ****   *
  13:Core/Src/usart.c ****   * This software is licensed under terms that can be found in the LICENSE file
  14:Core/Src/usart.c ****   * in the root directory of this software component.
  15:Core/Src/usart.c ****   * If no LICENSE file comes with this software, it is provided AS-IS.
  16:Core/Src/usart.c ****   *
  17:Core/Src/usart.c ****   ******************************************************************************
  18:Core/Src/usart.c ****   */
  19:Core/Src/usart.c **** /* USER CODE END Header */
  20:Core/Src/usart.c **** /* Includes ------------------------------------------------------------------*/
  21:Core/Src/usart.c **** #include "usart.h"
  22:Core/Src/usart.c **** 
  23:Core/Src/usart.c **** /* USER CODE BEGIN 0 */
  24:Core/Src/usart.c **** 
  25:Core/Src/usart.c **** #include <stdarg.h>
  26:Core/Src/usart.c **** #include <stdio.h>
  27:Core/Src/usart.c **** #include <string.h>
  28:Core/Src/usart.c **** 
  29:Core/Src/usart.c **** /* USER CODE END 0 */
  30:Core/Src/usart.c **** 
  31:Core/Src/usart.c **** UART_HandleTypeDef huart4;
  32:Core/Src/usart.c **** UART_HandleTypeDef huart5;
ARM GAS  C:\Users\86138\AppData\Local\Temp\ccDRy3Nk.s 			page 2


  33:Core/Src/usart.c **** DMA_HandleTypeDef hdma_uart4_rx;
  34:Core/Src/usart.c **** 
  35:Core/Src/usart.c **** /* UART4 init function */
  36:Core/Src/usart.c **** void MX_UART4_Init(void)
  37:Core/Src/usart.c **** {
  27              		.loc 1 37 1 view -0
  28              		.cfi_startproc
  29              		@ args = 0, pretend = 0, frame = 0
  30              		@ frame_needed = 0, uses_anonymous_args = 0
  31 0000 08B5     		push	{r3, lr}
  32              	.LCFI0:
  33              		.cfi_def_cfa_offset 8
  34              		.cfi_offset 3, -8
  35              		.cfi_offset 14, -4
  38:Core/Src/usart.c **** 
  39:Core/Src/usart.c ****   /* USER CODE BEGIN UART4_Init 0 */
  40:Core/Src/usart.c **** 
  41:Core/Src/usart.c ****   /* USER CODE END UART4_Init 0 */
  42:Core/Src/usart.c **** 
  43:Core/Src/usart.c ****   /* USER CODE BEGIN UART4_Init 1 */
  44:Core/Src/usart.c **** 
  45:Core/Src/usart.c ****   /* USER CODE END UART4_Init 1 */
  46:Core/Src/usart.c ****   huart4.Instance = UART4;
  36              		.loc 1 46 3 view .LVU1
  37              		.loc 1 46 19 is_stmt 0 view .LVU2
  38 0002 0A48     		ldr	r0, .L5
  39 0004 0A4B     		ldr	r3, .L5+4
  40 0006 0360     		str	r3, [r0]
  47:Core/Src/usart.c ****   huart4.Init.BaudRate = 115200;
  41              		.loc 1 47 3 is_stmt 1 view .LVU3
  42              		.loc 1 47 24 is_stmt 0 view .LVU4
  43 0008 4FF4E133 		mov	r3, #115200
  44 000c 4360     		str	r3, [r0, #4]
  48:Core/Src/usart.c ****   huart4.Init.WordLength = UART_WORDLENGTH_8B;
  45              		.loc 1 48 3 is_stmt 1 view .LVU5
  46              		.loc 1 48 26 is_stmt 0 view .LVU6
  47 000e 0023     		movs	r3, #0
  48 0010 8360     		str	r3, [r0, #8]
  49:Core/Src/usart.c ****   huart4.Init.StopBits = UART_STOPBITS_1;
  49              		.loc 1 49 3 is_stmt 1 view .LVU7
  50              		.loc 1 49 24 is_stmt 0 view .LVU8
  51 0012 C360     		str	r3, [r0, #12]
  50:Core/Src/usart.c ****   huart4.Init.Parity = UART_PARITY_NONE;
  52              		.loc 1 50 3 is_stmt 1 view .LVU9
  53              		.loc 1 50 22 is_stmt 0 view .LVU10
  54 0014 0361     		str	r3, [r0, #16]
  51:Core/Src/usart.c ****   huart4.Init.Mode = UART_MODE_TX_RX;
  55              		.loc 1 51 3 is_stmt 1 view .LVU11
  56              		.loc 1 51 20 is_stmt 0 view .LVU12
  57 0016 0C22     		movs	r2, #12
  58 0018 4261     		str	r2, [r0, #20]
  52:Core/Src/usart.c ****   huart4.Init.HwFlowCtl = UART_HWCONTROL_NONE;
  59              		.loc 1 52 3 is_stmt 1 view .LVU13
  60              		.loc 1 52 25 is_stmt 0 view .LVU14
  61 001a 8361     		str	r3, [r0, #24]
  53:Core/Src/usart.c ****   huart4.Init.OverSampling = UART_OVERSAMPLING_16;
  62              		.loc 1 53 3 is_stmt 1 view .LVU15
ARM GAS  C:\Users\86138\AppData\Local\Temp\ccDRy3Nk.s 			page 3


  63              		.loc 1 53 28 is_stmt 0 view .LVU16
  64 001c C361     		str	r3, [r0, #28]
  54:Core/Src/usart.c ****   if (HAL_UART_Init(&huart4) != HAL_OK)
  65              		.loc 1 54 3 is_stmt 1 view .LVU17
  66              		.loc 1 54 7 is_stmt 0 view .LVU18
  67 001e FFF7FEFF 		bl	HAL_UART_Init
  68              	.LVL0:
  69              		.loc 1 54 6 view .LVU19
  70 0022 00B9     		cbnz	r0, .L4
  71              	.L1:
  55:Core/Src/usart.c ****   {
  56:Core/Src/usart.c ****     Error_Handler();
  57:Core/Src/usart.c ****   }
  58:Core/Src/usart.c ****   /* USER CODE BEGIN UART4_Init 2 */
  59:Core/Src/usart.c **** 
  60:Core/Src/usart.c ****   /* USER CODE END UART4_Init 2 */
  61:Core/Src/usart.c **** 
  62:Core/Src/usart.c **** }
  72              		.loc 1 62 1 view .LVU20
  73 0024 08BD     		pop	{r3, pc}
  74              	.L4:
  56:Core/Src/usart.c ****   }
  75              		.loc 1 56 5 is_stmt 1 view .LVU21
  76 0026 FFF7FEFF 		bl	Error_Handler
  77              	.LVL1:
  78              		.loc 1 62 1 is_stmt 0 view .LVU22
  79 002a FBE7     		b	.L1
  80              	.L6:
  81              		.align	2
  82              	.L5:
  83 002c 00000000 		.word	.LANCHOR0
  84 0030 004C0040 		.word	1073761280
  85              		.cfi_endproc
  86              	.LFE68:
  88              		.section	.text.MX_UART5_Init,"ax",%progbits
  89              		.align	1
  90              		.global	MX_UART5_Init
  91              		.syntax unified
  92              		.thumb
  93              		.thumb_func
  94              		.fpu softvfp
  96              	MX_UART5_Init:
  97              	.LFB69:
  63:Core/Src/usart.c **** /* UART5 init function */
  64:Core/Src/usart.c **** void MX_UART5_Init(void)
  65:Core/Src/usart.c **** {
  98              		.loc 1 65 1 is_stmt 1 view -0
  99              		.cfi_startproc
 100              		@ args = 0, pretend = 0, frame = 0
 101              		@ frame_needed = 0, uses_anonymous_args = 0
 102 0000 08B5     		push	{r3, lr}
 103              	.LCFI1:
 104              		.cfi_def_cfa_offset 8
 105              		.cfi_offset 3, -8
 106              		.cfi_offset 14, -4
  66:Core/Src/usart.c **** 
  67:Core/Src/usart.c ****   /* USER CODE BEGIN UART5_Init 0 */
ARM GAS  C:\Users\86138\AppData\Local\Temp\ccDRy3Nk.s 			page 4


  68:Core/Src/usart.c **** 
  69:Core/Src/usart.c ****   /* USER CODE END UART5_Init 0 */
  70:Core/Src/usart.c **** 
  71:Core/Src/usart.c ****   /* USER CODE BEGIN UART5_Init 1 */
  72:Core/Src/usart.c **** 
  73:Core/Src/usart.c ****   /* USER CODE END UART5_Init 1 */
  74:Core/Src/usart.c ****   huart5.Instance = UART5;
 107              		.loc 1 74 3 view .LVU24
 108              		.loc 1 74 19 is_stmt 0 view .LVU25
 109 0002 0A48     		ldr	r0, .L11
 110 0004 0A4B     		ldr	r3, .L11+4
 111 0006 0360     		str	r3, [r0]
  75:Core/Src/usart.c ****   huart5.Init.BaudRate = 115200;
 112              		.loc 1 75 3 is_stmt 1 view .LVU26
 113              		.loc 1 75 24 is_stmt 0 view .LVU27
 114 0008 4FF4E133 		mov	r3, #115200
 115 000c 4360     		str	r3, [r0, #4]
  76:Core/Src/usart.c ****   huart5.Init.WordLength = UART_WORDLENGTH_8B;
 116              		.loc 1 76 3 is_stmt 1 view .LVU28
 117              		.loc 1 76 26 is_stmt 0 view .LVU29
 118 000e 0023     		movs	r3, #0
 119 0010 8360     		str	r3, [r0, #8]
  77:Core/Src/usart.c ****   huart5.Init.StopBits = UART_STOPBITS_1;
 120              		.loc 1 77 3 is_stmt 1 view .LVU30
 121              		.loc 1 77 24 is_stmt 0 view .LVU31
 122 0012 C360     		str	r3, [r0, #12]
  78:Core/Src/usart.c ****   huart5.Init.Parity = UART_PARITY_NONE;
 123              		.loc 1 78 3 is_stmt 1 view .LVU32
 124              		.loc 1 78 22 is_stmt 0 view .LVU33
 125 0014 0361     		str	r3, [r0, #16]
  79:Core/Src/usart.c ****   huart5.Init.Mode = UART_MODE_TX_RX;
 126              		.loc 1 79 3 is_stmt 1 view .LVU34
 127              		.loc 1 79 20 is_stmt 0 view .LVU35
 128 0016 0C22     		movs	r2, #12
 129 0018 4261     		str	r2, [r0, #20]
  80:Core/Src/usart.c ****   huart5.Init.HwFlowCtl = UART_HWCONTROL_NONE;
 130              		.loc 1 80 3 is_stmt 1 view .LVU36
 131              		.loc 1 80 25 is_stmt 0 view .LVU37
 132 001a 8361     		str	r3, [r0, #24]
  81:Core/Src/usart.c ****   huart5.Init.OverSampling = UART_OVERSAMPLING_16;
 133              		.loc 1 81 3 is_stmt 1 view .LVU38
 134              		.loc 1 81 28 is_stmt 0 view .LVU39
 135 001c C361     		str	r3, [r0, #28]
  82:Core/Src/usart.c ****   if (HAL_UART_Init(&huart5) != HAL_OK)
 136              		.loc 1 82 3 is_stmt 1 view .LVU40
 137              		.loc 1 82 7 is_stmt 0 view .LVU41
 138 001e FFF7FEFF 		bl	HAL_UART_Init
 139              	.LVL2:
 140              		.loc 1 82 6 view .LVU42
 141 0022 00B9     		cbnz	r0, .L10
 142              	.L7:
  83:Core/Src/usart.c ****   {
  84:Core/Src/usart.c ****     Error_Handler();
  85:Core/Src/usart.c ****   }
  86:Core/Src/usart.c ****   /* USER CODE BEGIN UART5_Init 2 */
  87:Core/Src/usart.c **** 
  88:Core/Src/usart.c ****   /* USER CODE END UART5_Init 2 */
ARM GAS  C:\Users\86138\AppData\Local\Temp\ccDRy3Nk.s 			page 5


  89:Core/Src/usart.c **** 
  90:Core/Src/usart.c **** }
 143              		.loc 1 90 1 view .LVU43
 144 0024 08BD     		pop	{r3, pc}
 145              	.L10:
  84:Core/Src/usart.c ****   }
 146              		.loc 1 84 5 is_stmt 1 view .LVU44
 147 0026 FFF7FEFF 		bl	Error_Handler
 148              	.LVL3:
 149              		.loc 1 90 1 is_stmt 0 view .LVU45
 150 002a FBE7     		b	.L7
 151              	.L12:
 152              		.align	2
 153              	.L11:
 154 002c 00000000 		.word	.LANCHOR1
 155 0030 00500040 		.word	1073762304
 156              		.cfi_endproc
 157              	.LFE69:
 159              		.section	.text.HAL_UART_MspInit,"ax",%progbits
 160              		.align	1
 161              		.global	HAL_UART_MspInit
 162              		.syntax unified
 163              		.thumb
 164              		.thumb_func
 165              		.fpu softvfp
 167              	HAL_UART_MspInit:
 168              	.LVL4:
 169              	.LFB70:
  91:Core/Src/usart.c **** 
  92:Core/Src/usart.c **** void HAL_UART_MspInit(UART_HandleTypeDef* uartHandle)
  93:Core/Src/usart.c **** {
 170              		.loc 1 93 1 is_stmt 1 view -0
 171              		.cfi_startproc
 172              		@ args = 0, pretend = 0, frame = 40
 173              		@ frame_needed = 0, uses_anonymous_args = 0
 174              		.loc 1 93 1 is_stmt 0 view .LVU47
 175 0000 70B5     		push	{r4, r5, r6, lr}
 176              	.LCFI2:
 177              		.cfi_def_cfa_offset 16
 178              		.cfi_offset 4, -16
 179              		.cfi_offset 5, -12
 180              		.cfi_offset 6, -8
 181              		.cfi_offset 14, -4
 182 0002 8AB0     		sub	sp, sp, #40
 183              	.LCFI3:
 184              		.cfi_def_cfa_offset 56
  94:Core/Src/usart.c **** 
  95:Core/Src/usart.c ****   GPIO_InitTypeDef GPIO_InitStruct = {0};
 185              		.loc 1 95 3 is_stmt 1 view .LVU48
 186              		.loc 1 95 20 is_stmt 0 view .LVU49
 187 0004 0023     		movs	r3, #0
 188 0006 0693     		str	r3, [sp, #24]
 189 0008 0793     		str	r3, [sp, #28]
 190 000a 0893     		str	r3, [sp, #32]
 191 000c 0993     		str	r3, [sp, #36]
  96:Core/Src/usart.c ****   if(uartHandle->Instance==UART4)
 192              		.loc 1 96 3 is_stmt 1 view .LVU50
ARM GAS  C:\Users\86138\AppData\Local\Temp\ccDRy3Nk.s 			page 6


 193              		.loc 1 96 16 is_stmt 0 view .LVU51
 194 000e 0368     		ldr	r3, [r0]
 195              		.loc 1 96 5 view .LVU52
 196 0010 434A     		ldr	r2, .L21
 197 0012 9342     		cmp	r3, r2
 198 0014 04D0     		beq	.L18
  97:Core/Src/usart.c ****   {
  98:Core/Src/usart.c ****   /* USER CODE BEGIN UART4_MspInit 0 */
  99:Core/Src/usart.c **** 
 100:Core/Src/usart.c ****   /* USER CODE END UART4_MspInit 0 */
 101:Core/Src/usart.c ****     /* UART4 clock enable */
 102:Core/Src/usart.c ****     __HAL_RCC_UART4_CLK_ENABLE();
 103:Core/Src/usart.c **** 
 104:Core/Src/usart.c ****     __HAL_RCC_GPIOC_CLK_ENABLE();
 105:Core/Src/usart.c ****     /**UART4 GPIO Configuration
 106:Core/Src/usart.c ****     PC10     ------> UART4_TX
 107:Core/Src/usart.c ****     PC11     ------> UART4_RX
 108:Core/Src/usart.c ****     */
 109:Core/Src/usart.c ****     GPIO_InitStruct.Pin = GPIO_PIN_10;
 110:Core/Src/usart.c ****     GPIO_InitStruct.Mode = GPIO_MODE_AF_PP;
 111:Core/Src/usart.c ****     GPIO_InitStruct.Speed = GPIO_SPEED_FREQ_HIGH;
 112:Core/Src/usart.c ****     HAL_GPIO_Init(GPIOC, &GPIO_InitStruct);
 113:Core/Src/usart.c **** 
 114:Core/Src/usart.c ****     GPIO_InitStruct.Pin = GPIO_PIN_11;
 115:Core/Src/usart.c ****     GPIO_InitStruct.Mode = GPIO_MODE_INPUT;
 116:Core/Src/usart.c ****     GPIO_InitStruct.Pull = GPIO_NOPULL;
 117:Core/Src/usart.c ****     HAL_GPIO_Init(GPIOC, &GPIO_InitStruct);
 118:Core/Src/usart.c **** 
 119:Core/Src/usart.c ****     /* UART4 DMA Init */
 120:Core/Src/usart.c ****     /* UART4_RX Init */
 121:Core/Src/usart.c ****     hdma_uart4_rx.Instance = DMA2_Channel3;
 122:Core/Src/usart.c ****     hdma_uart4_rx.Init.Direction = DMA_PERIPH_TO_MEMORY;
 123:Core/Src/usart.c ****     hdma_uart4_rx.Init.PeriphInc = DMA_PINC_DISABLE;
 124:Core/Src/usart.c ****     hdma_uart4_rx.Init.MemInc = DMA_MINC_ENABLE;
 125:Core/Src/usart.c ****     hdma_uart4_rx.Init.PeriphDataAlignment = DMA_PDATAALIGN_BYTE;
 126:Core/Src/usart.c ****     hdma_uart4_rx.Init.MemDataAlignment = DMA_MDATAALIGN_BYTE;
 127:Core/Src/usart.c ****     hdma_uart4_rx.Init.Mode = DMA_NORMAL;
 128:Core/Src/usart.c ****     hdma_uart4_rx.Init.Priority = DMA_PRIORITY_LOW;
 129:Core/Src/usart.c ****     if (HAL_DMA_Init(&hdma_uart4_rx) != HAL_OK)
 130:Core/Src/usart.c ****     {
 131:Core/Src/usart.c ****       Error_Handler();
 132:Core/Src/usart.c ****     }
 133:Core/Src/usart.c **** 
 134:Core/Src/usart.c ****     __HAL_LINKDMA(uartHandle,hdmarx,hdma_uart4_rx);
 135:Core/Src/usart.c **** 
 136:Core/Src/usart.c ****     /* UART4 interrupt Init */
 137:Core/Src/usart.c ****     HAL_NVIC_SetPriority(UART4_IRQn, 0, 0);
 138:Core/Src/usart.c ****     HAL_NVIC_EnableIRQ(UART4_IRQn);
 139:Core/Src/usart.c ****   /* USER CODE BEGIN UART4_MspInit 1 */
 140:Core/Src/usart.c **** 
 141:Core/Src/usart.c ****   /* USER CODE END UART4_MspInit 1 */
 142:Core/Src/usart.c ****   }
 143:Core/Src/usart.c ****   else if(uartHandle->Instance==UART5)
 199              		.loc 1 143 8 is_stmt 1 view .LVU53
 200              		.loc 1 143 10 is_stmt 0 view .LVU54
 201 0016 434A     		ldr	r2, .L21+4
 202 0018 9342     		cmp	r3, r2
ARM GAS  C:\Users\86138\AppData\Local\Temp\ccDRy3Nk.s 			page 7


 203 001a 48D0     		beq	.L19
 204              	.LVL5:
 205              	.L13:
 144:Core/Src/usart.c ****   {
 145:Core/Src/usart.c ****   /* USER CODE BEGIN UART5_MspInit 0 */
 146:Core/Src/usart.c **** 
 147:Core/Src/usart.c ****   /* USER CODE END UART5_MspInit 0 */
 148:Core/Src/usart.c ****     /* UART5 clock enable */
 149:Core/Src/usart.c ****     __HAL_RCC_UART5_CLK_ENABLE();
 150:Core/Src/usart.c **** 
 151:Core/Src/usart.c ****     __HAL_RCC_GPIOC_CLK_ENABLE();
 152:Core/Src/usart.c ****     __HAL_RCC_GPIOD_CLK_ENABLE();
 153:Core/Src/usart.c ****     /**UART5 GPIO Configuration
 154:Core/Src/usart.c ****     PC12     ------> UART5_TX
 155:Core/Src/usart.c ****     PD2     ------> UART5_RX
 156:Core/Src/usart.c ****     */
 157:Core/Src/usart.c ****     GPIO_InitStruct.Pin = GPIO_PIN_12;
 158:Core/Src/usart.c ****     GPIO_InitStruct.Mode = GPIO_MODE_AF_PP;
 159:Core/Src/usart.c ****     GPIO_InitStruct.Speed = GPIO_SPEED_FREQ_HIGH;
 160:Core/Src/usart.c ****     HAL_GPIO_Init(GPIOC, &GPIO_InitStruct);
 161:Core/Src/usart.c **** 
 162:Core/Src/usart.c ****     GPIO_InitStruct.Pin = GPIO_PIN_2;
 163:Core/Src/usart.c ****     GPIO_InitStruct.Mode = GPIO_MODE_INPUT;
 164:Core/Src/usart.c ****     GPIO_InitStruct.Pull = GPIO_NOPULL;
 165:Core/Src/usart.c ****     HAL_GPIO_Init(GPIOD, &GPIO_InitStruct);
 166:Core/Src/usart.c **** 
 167:Core/Src/usart.c ****     /* UART5 interrupt Init */
 168:Core/Src/usart.c ****     HAL_NVIC_SetPriority(UART5_IRQn, 0, 0);
 169:Core/Src/usart.c ****     HAL_NVIC_EnableIRQ(UART5_IRQn);
 170:Core/Src/usart.c ****   /* USER CODE BEGIN UART5_MspInit 1 */
 171:Core/Src/usart.c **** 
 172:Core/Src/usart.c ****   /* USER CODE END UART5_MspInit 1 */
 173:Core/Src/usart.c ****   }
 174:Core/Src/usart.c **** }
 206              		.loc 1 174 1 view .LVU55
 207 001c 0AB0     		add	sp, sp, #40
 208              	.LCFI4:
 209              		.cfi_remember_state
 210              		.cfi_def_cfa_offset 16
 211              		@ sp needed
 212 001e 70BD     		pop	{r4, r5, r6, pc}
 213              	.LVL6:
 214              	.L18:
 215              	.LCFI5:
 216              		.cfi_restore_state
 217              		.loc 1 174 1 view .LVU56
 218 0020 0446     		mov	r4, r0
 102:Core/Src/usart.c **** 
 219              		.loc 1 102 5 is_stmt 1 view .LVU57
 220              	.LBB2:
 102:Core/Src/usart.c **** 
 221              		.loc 1 102 5 view .LVU58
 102:Core/Src/usart.c **** 
 222              		.loc 1 102 5 view .LVU59
 223 0022 414B     		ldr	r3, .L21+8
 224 0024 DA69     		ldr	r2, [r3, #28]
 225 0026 42F40022 		orr	r2, r2, #524288
ARM GAS  C:\Users\86138\AppData\Local\Temp\ccDRy3Nk.s 			page 8


 226 002a DA61     		str	r2, [r3, #28]
 102:Core/Src/usart.c **** 
 227              		.loc 1 102 5 view .LVU60
 228 002c DA69     		ldr	r2, [r3, #28]
 229 002e 02F40022 		and	r2, r2, #524288
 230 0032 0192     		str	r2, [sp, #4]
 102:Core/Src/usart.c **** 
 231              		.loc 1 102 5 view .LVU61
 232 0034 019A     		ldr	r2, [sp, #4]
 233              	.LBE2:
 102:Core/Src/usart.c **** 
 234              		.loc 1 102 5 view .LVU62
 104:Core/Src/usart.c ****     /**UART4 GPIO Configuration
 235              		.loc 1 104 5 view .LVU63
 236              	.LBB3:
 104:Core/Src/usart.c ****     /**UART4 GPIO Configuration
 237              		.loc 1 104 5 view .LVU64
 104:Core/Src/usart.c ****     /**UART4 GPIO Configuration
 238              		.loc 1 104 5 view .LVU65
 239 0036 9A69     		ldr	r2, [r3, #24]
 240 0038 42F01002 		orr	r2, r2, #16
 241 003c 9A61     		str	r2, [r3, #24]
 104:Core/Src/usart.c ****     /**UART4 GPIO Configuration
 242              		.loc 1 104 5 view .LVU66
 243 003e 9B69     		ldr	r3, [r3, #24]
 244 0040 03F01003 		and	r3, r3, #16
 245 0044 0293     		str	r3, [sp, #8]
 104:Core/Src/usart.c ****     /**UART4 GPIO Configuration
 246              		.loc 1 104 5 view .LVU67
 247 0046 029B     		ldr	r3, [sp, #8]
 248              	.LBE3:
 104:Core/Src/usart.c ****     /**UART4 GPIO Configuration
 249              		.loc 1 104 5 view .LVU68
 109:Core/Src/usart.c ****     GPIO_InitStruct.Mode = GPIO_MODE_AF_PP;
 250              		.loc 1 109 5 view .LVU69
 109:Core/Src/usart.c ****     GPIO_InitStruct.Mode = GPIO_MODE_AF_PP;
 251              		.loc 1 109 25 is_stmt 0 view .LVU70
 252 0048 4FF48063 		mov	r3, #1024
 253 004c 0693     		str	r3, [sp, #24]
 110:Core/Src/usart.c ****     GPIO_InitStruct.Speed = GPIO_SPEED_FREQ_HIGH;
 254              		.loc 1 110 5 is_stmt 1 view .LVU71
 110:Core/Src/usart.c ****     GPIO_InitStruct.Speed = GPIO_SPEED_FREQ_HIGH;
 255              		.loc 1 110 26 is_stmt 0 view .LVU72
 256 004e 0223     		movs	r3, #2
 257 0050 0793     		str	r3, [sp, #28]
 111:Core/Src/usart.c ****     HAL_GPIO_Init(GPIOC, &GPIO_InitStruct);
 258              		.loc 1 111 5 is_stmt 1 view .LVU73
 111:Core/Src/usart.c ****     HAL_GPIO_Init(GPIOC, &GPIO_InitStruct);
 259              		.loc 1 111 27 is_stmt 0 view .LVU74
 260 0052 0323     		movs	r3, #3
 261 0054 0993     		str	r3, [sp, #36]
 112:Core/Src/usart.c **** 
 262              		.loc 1 112 5 is_stmt 1 view .LVU75
 263 0056 354E     		ldr	r6, .L21+12
 264 0058 06A9     		add	r1, sp, #24
 265 005a 3046     		mov	r0, r6
 266              	.LVL7:
ARM GAS  C:\Users\86138\AppData\Local\Temp\ccDRy3Nk.s 			page 9


 112:Core/Src/usart.c **** 
 267              		.loc 1 112 5 is_stmt 0 view .LVU76
 268 005c FFF7FEFF 		bl	HAL_GPIO_Init
 269              	.LVL8:
 114:Core/Src/usart.c ****     GPIO_InitStruct.Mode = GPIO_MODE_INPUT;
 270              		.loc 1 114 5 is_stmt 1 view .LVU77
 114:Core/Src/usart.c ****     GPIO_InitStruct.Mode = GPIO_MODE_INPUT;
 271              		.loc 1 114 25 is_stmt 0 view .LVU78
 272 0060 4FF40063 		mov	r3, #2048
 273 0064 0693     		str	r3, [sp, #24]
 115:Core/Src/usart.c ****     GPIO_InitStruct.Pull = GPIO_NOPULL;
 274              		.loc 1 115 5 is_stmt 1 view .LVU79
 115:Core/Src/usart.c ****     GPIO_InitStruct.Pull = GPIO_NOPULL;
 275              		.loc 1 115 26 is_stmt 0 view .LVU80
 276 0066 0025     		movs	r5, #0
 277 0068 0795     		str	r5, [sp, #28]
 116:Core/Src/usart.c ****     HAL_GPIO_Init(GPIOC, &GPIO_InitStruct);
 278              		.loc 1 116 5 is_stmt 1 view .LVU81
 116:Core/Src/usart.c ****     HAL_GPIO_Init(GPIOC, &GPIO_InitStruct);
 279              		.loc 1 116 26 is_stmt 0 view .LVU82
 280 006a 0895     		str	r5, [sp, #32]
 117:Core/Src/usart.c **** 
 281              		.loc 1 117 5 is_stmt 1 view .LVU83
 282 006c 06A9     		add	r1, sp, #24
 283 006e 3046     		mov	r0, r6
 284 0070 FFF7FEFF 		bl	HAL_GPIO_Init
 285              	.LVL9:
 121:Core/Src/usart.c ****     hdma_uart4_rx.Init.Direction = DMA_PERIPH_TO_MEMORY;
 286              		.loc 1 121 5 view .LVU84
 121:Core/Src/usart.c ****     hdma_uart4_rx.Init.Direction = DMA_PERIPH_TO_MEMORY;
 287              		.loc 1 121 28 is_stmt 0 view .LVU85
 288 0074 2E48     		ldr	r0, .L21+16
 289 0076 2F4B     		ldr	r3, .L21+20
 290 0078 0360     		str	r3, [r0]
 122:Core/Src/usart.c ****     hdma_uart4_rx.Init.PeriphInc = DMA_PINC_DISABLE;
 291              		.loc 1 122 5 is_stmt 1 view .LVU86
 122:Core/Src/usart.c ****     hdma_uart4_rx.Init.PeriphInc = DMA_PINC_DISABLE;
 292              		.loc 1 122 34 is_stmt 0 view .LVU87
 293 007a 4560     		str	r5, [r0, #4]
 123:Core/Src/usart.c ****     hdma_uart4_rx.Init.MemInc = DMA_MINC_ENABLE;
 294              		.loc 1 123 5 is_stmt 1 view .LVU88
 123:Core/Src/usart.c ****     hdma_uart4_rx.Init.MemInc = DMA_MINC_ENABLE;
 295              		.loc 1 123 34 is_stmt 0 view .LVU89
 296 007c 8560     		str	r5, [r0, #8]
 124:Core/Src/usart.c ****     hdma_uart4_rx.Init.PeriphDataAlignment = DMA_PDATAALIGN_BYTE;
 297              		.loc 1 124 5 is_stmt 1 view .LVU90
 124:Core/Src/usart.c ****     hdma_uart4_rx.Init.PeriphDataAlignment = DMA_PDATAALIGN_BYTE;
 298              		.loc 1 124 31 is_stmt 0 view .LVU91
 299 007e 8023     		movs	r3, #128
 300 0080 C360     		str	r3, [r0, #12]
 125:Core/Src/usart.c ****     hdma_uart4_rx.Init.MemDataAlignment = DMA_MDATAALIGN_BYTE;
 301              		.loc 1 125 5 is_stmt 1 view .LVU92
 125:Core/Src/usart.c ****     hdma_uart4_rx.Init.MemDataAlignment = DMA_MDATAALIGN_BYTE;
 302              		.loc 1 125 44 is_stmt 0 view .LVU93
 303 0082 0561     		str	r5, [r0, #16]
 126:Core/Src/usart.c ****     hdma_uart4_rx.Init.Mode = DMA_NORMAL;
 304              		.loc 1 126 5 is_stmt 1 view .LVU94
ARM GAS  C:\Users\86138\AppData\Local\Temp\ccDRy3Nk.s 			page 10


 126:Core/Src/usart.c ****     hdma_uart4_rx.Init.Mode = DMA_NORMAL;
 305              		.loc 1 126 41 is_stmt 0 view .LVU95
 306 0084 4561     		str	r5, [r0, #20]
 127:Core/Src/usart.c ****     hdma_uart4_rx.Init.Priority = DMA_PRIORITY_LOW;
 307              		.loc 1 127 5 is_stmt 1 view .LVU96
 127:Core/Src/usart.c ****     hdma_uart4_rx.Init.Priority = DMA_PRIORITY_LOW;
 308              		.loc 1 127 29 is_stmt 0 view .LVU97
 309 0086 8561     		str	r5, [r0, #24]
 128:Core/Src/usart.c ****     if (HAL_DMA_Init(&hdma_uart4_rx) != HAL_OK)
 310              		.loc 1 128 5 is_stmt 1 view .LVU98
 128:Core/Src/usart.c ****     if (HAL_DMA_Init(&hdma_uart4_rx) != HAL_OK)
 311              		.loc 1 128 33 is_stmt 0 view .LVU99
 312 0088 C561     		str	r5, [r0, #28]
 129:Core/Src/usart.c ****     {
 313              		.loc 1 129 5 is_stmt 1 view .LVU100
 129:Core/Src/usart.c ****     {
 314              		.loc 1 129 9 is_stmt 0 view .LVU101
 315 008a FFF7FEFF 		bl	HAL_DMA_Init
 316              	.LVL10:
 129:Core/Src/usart.c ****     {
 317              		.loc 1 129 8 view .LVU102
 318 008e 58B9     		cbnz	r0, .L20
 319              	.L15:
 134:Core/Src/usart.c **** 
 320              		.loc 1 134 5 is_stmt 1 view .LVU103
 134:Core/Src/usart.c **** 
 321              		.loc 1 134 5 view .LVU104
 322 0090 274B     		ldr	r3, .L21+16
 323 0092 A363     		str	r3, [r4, #56]
 134:Core/Src/usart.c **** 
 324              		.loc 1 134 5 view .LVU105
 325 0094 5C62     		str	r4, [r3, #36]
 134:Core/Src/usart.c **** 
 326              		.loc 1 134 5 view .LVU106
 137:Core/Src/usart.c ****     HAL_NVIC_EnableIRQ(UART4_IRQn);
 327              		.loc 1 137 5 view .LVU107
 328 0096 0022     		movs	r2, #0
 329 0098 1146     		mov	r1, r2
 330 009a 3420     		movs	r0, #52
 331 009c FFF7FEFF 		bl	HAL_NVIC_SetPriority
 332              	.LVL11:
 138:Core/Src/usart.c ****   /* USER CODE BEGIN UART4_MspInit 1 */
 333              		.loc 1 138 5 view .LVU108
 334 00a0 3420     		movs	r0, #52
 335 00a2 FFF7FEFF 		bl	HAL_NVIC_EnableIRQ
 336              	.LVL12:
 337 00a6 B9E7     		b	.L13
 338              	.L20:
 131:Core/Src/usart.c ****     }
 339              		.loc 1 131 7 view .LVU109
 340 00a8 FFF7FEFF 		bl	Error_Handler
 341              	.LVL13:
 342 00ac F0E7     		b	.L15
 343              	.LVL14:
 344              	.L19:
 149:Core/Src/usart.c **** 
 345              		.loc 1 149 5 view .LVU110
ARM GAS  C:\Users\86138\AppData\Local\Temp\ccDRy3Nk.s 			page 11


 346              	.LBB4:
 149:Core/Src/usart.c **** 
 347              		.loc 1 149 5 view .LVU111
 149:Core/Src/usart.c **** 
 348              		.loc 1 149 5 view .LVU112
 349 00ae 1E4B     		ldr	r3, .L21+8
 350 00b0 DA69     		ldr	r2, [r3, #28]
 351 00b2 42F48012 		orr	r2, r2, #1048576
 352 00b6 DA61     		str	r2, [r3, #28]
 149:Core/Src/usart.c **** 
 353              		.loc 1 149 5 view .LVU113
 354 00b8 DA69     		ldr	r2, [r3, #28]
 355 00ba 02F48012 		and	r2, r2, #1048576
 356 00be 0392     		str	r2, [sp, #12]
 149:Core/Src/usart.c **** 
 357              		.loc 1 149 5 view .LVU114
 358 00c0 039A     		ldr	r2, [sp, #12]
 359              	.LBE4:
 149:Core/Src/usart.c **** 
 360              		.loc 1 149 5 view .LVU115
 151:Core/Src/usart.c ****     __HAL_RCC_GPIOD_CLK_ENABLE();
 361              		.loc 1 151 5 view .LVU116
 362              	.LBB5:
 151:Core/Src/usart.c ****     __HAL_RCC_GPIOD_CLK_ENABLE();
 363              		.loc 1 151 5 view .LVU117
 151:Core/Src/usart.c ****     __HAL_RCC_GPIOD_CLK_ENABLE();
 364              		.loc 1 151 5 view .LVU118
 365 00c2 9A69     		ldr	r2, [r3, #24]
 366 00c4 42F01002 		orr	r2, r2, #16
 367 00c8 9A61     		str	r2, [r3, #24]
 151:Core/Src/usart.c ****     __HAL_RCC_GPIOD_CLK_ENABLE();
 368              		.loc 1 151 5 view .LVU119
 369 00ca 9A69     		ldr	r2, [r3, #24]
 370 00cc 02F01002 		and	r2, r2, #16
 371 00d0 0492     		str	r2, [sp, #16]
 151:Core/Src/usart.c ****     __HAL_RCC_GPIOD_CLK_ENABLE();
 372              		.loc 1 151 5 view .LVU120
 373 00d2 049A     		ldr	r2, [sp, #16]
 374              	.LBE5:
 151:Core/Src/usart.c ****     __HAL_RCC_GPIOD_CLK_ENABLE();
 375              		.loc 1 151 5 view .LVU121
 152:Core/Src/usart.c ****     /**UART5 GPIO Configuration
 376              		.loc 1 152 5 view .LVU122
 377              	.LBB6:
 152:Core/Src/usart.c ****     /**UART5 GPIO Configuration
 378              		.loc 1 152 5 view .LVU123
 152:Core/Src/usart.c ****     /**UART5 GPIO Configuration
 379              		.loc 1 152 5 view .LVU124
 380 00d4 9A69     		ldr	r2, [r3, #24]
 381 00d6 42F02002 		orr	r2, r2, #32
 382 00da 9A61     		str	r2, [r3, #24]
 152:Core/Src/usart.c ****     /**UART5 GPIO Configuration
 383              		.loc 1 152 5 view .LVU125
 384 00dc 9B69     		ldr	r3, [r3, #24]
 385 00de 03F02003 		and	r3, r3, #32
 386 00e2 0593     		str	r3, [sp, #20]
 152:Core/Src/usart.c ****     /**UART5 GPIO Configuration
ARM GAS  C:\Users\86138\AppData\Local\Temp\ccDRy3Nk.s 			page 12


 387              		.loc 1 152 5 view .LVU126
 388 00e4 059B     		ldr	r3, [sp, #20]
 389              	.LBE6:
 152:Core/Src/usart.c ****     /**UART5 GPIO Configuration
 390              		.loc 1 152 5 view .LVU127
 157:Core/Src/usart.c ****     GPIO_InitStruct.Mode = GPIO_MODE_AF_PP;
 391              		.loc 1 157 5 view .LVU128
 157:Core/Src/usart.c ****     GPIO_InitStruct.Mode = GPIO_MODE_AF_PP;
 392              		.loc 1 157 25 is_stmt 0 view .LVU129
 393 00e6 4FF48053 		mov	r3, #4096
 394 00ea 0693     		str	r3, [sp, #24]
 158:Core/Src/usart.c ****     GPIO_InitStruct.Speed = GPIO_SPEED_FREQ_HIGH;
 395              		.loc 1 158 5 is_stmt 1 view .LVU130
 158:Core/Src/usart.c ****     GPIO_InitStruct.Speed = GPIO_SPEED_FREQ_HIGH;
 396              		.loc 1 158 26 is_stmt 0 view .LVU131
 397 00ec 0223     		movs	r3, #2
 398 00ee 0793     		str	r3, [sp, #28]
 159:Core/Src/usart.c ****     HAL_GPIO_Init(GPIOC, &GPIO_InitStruct);
 399              		.loc 1 159 5 is_stmt 1 view .LVU132
 159:Core/Src/usart.c ****     HAL_GPIO_Init(GPIOC, &GPIO_InitStruct);
 400              		.loc 1 159 27 is_stmt 0 view .LVU133
 401 00f0 0323     		movs	r3, #3
 402 00f2 0993     		str	r3, [sp, #36]
 160:Core/Src/usart.c **** 
 403              		.loc 1 160 5 is_stmt 1 view .LVU134
 404 00f4 06A9     		add	r1, sp, #24
 405 00f6 0D48     		ldr	r0, .L21+12
 406              	.LVL15:
 160:Core/Src/usart.c **** 
 407              		.loc 1 160 5 is_stmt 0 view .LVU135
 408 00f8 FFF7FEFF 		bl	HAL_GPIO_Init
 409              	.LVL16:
 162:Core/Src/usart.c ****     GPIO_InitStruct.Mode = GPIO_MODE_INPUT;
 410              		.loc 1 162 5 is_stmt 1 view .LVU136
 162:Core/Src/usart.c ****     GPIO_InitStruct.Mode = GPIO_MODE_INPUT;
 411              		.loc 1 162 25 is_stmt 0 view .LVU137
 412 00fc 0423     		movs	r3, #4
 413 00fe 0693     		str	r3, [sp, #24]
 163:Core/Src/usart.c ****     GPIO_InitStruct.Pull = GPIO_NOPULL;
 414              		.loc 1 163 5 is_stmt 1 view .LVU138
 163:Core/Src/usart.c ****     GPIO_InitStruct.Pull = GPIO_NOPULL;
 415              		.loc 1 163 26 is_stmt 0 view .LVU139
 416 0100 0024     		movs	r4, #0
 417 0102 0794     		str	r4, [sp, #28]
 164:Core/Src/usart.c ****     HAL_GPIO_Init(GPIOD, &GPIO_InitStruct);
 418              		.loc 1 164 5 is_stmt 1 view .LVU140
 164:Core/Src/usart.c ****     HAL_GPIO_Init(GPIOD, &GPIO_InitStruct);
 419              		.loc 1 164 26 is_stmt 0 view .LVU141
 420 0104 0894     		str	r4, [sp, #32]
 165:Core/Src/usart.c **** 
 421              		.loc 1 165 5 is_stmt 1 view .LVU142
 422 0106 06A9     		add	r1, sp, #24
 423 0108 0B48     		ldr	r0, .L21+24
 424 010a FFF7FEFF 		bl	HAL_GPIO_Init
 425              	.LVL17:
 168:Core/Src/usart.c ****     HAL_NVIC_EnableIRQ(UART5_IRQn);
 426              		.loc 1 168 5 view .LVU143
ARM GAS  C:\Users\86138\AppData\Local\Temp\ccDRy3Nk.s 			page 13


 427 010e 2246     		mov	r2, r4
 428 0110 2146     		mov	r1, r4
 429 0112 3520     		movs	r0, #53
 430 0114 FFF7FEFF 		bl	HAL_NVIC_SetPriority
 431              	.LVL18:
 169:Core/Src/usart.c ****   /* USER CODE BEGIN UART5_MspInit 1 */
 432              		.loc 1 169 5 view .LVU144
 433 0118 3520     		movs	r0, #53
 434 011a FFF7FEFF 		bl	HAL_NVIC_EnableIRQ
 435              	.LVL19:
 436              		.loc 1 174 1 is_stmt 0 view .LVU145
 437 011e 7DE7     		b	.L13
 438              	.L22:
 439              		.align	2
 440              	.L21:
 441 0120 004C0040 		.word	1073761280
 442 0124 00500040 		.word	1073762304
 443 0128 00100240 		.word	1073876992
 444 012c 00100140 		.word	1073811456
 445 0130 00000000 		.word	.LANCHOR2
 446 0134 30040240 		.word	1073873968
 447 0138 00140140 		.word	1073812480
 448              		.cfi_endproc
 449              	.LFE70:
 451              		.section	.text.HAL_UART_MspDeInit,"ax",%progbits
 452              		.align	1
 453              		.global	HAL_UART_MspDeInit
 454              		.syntax unified
 455              		.thumb
 456              		.thumb_func
 457              		.fpu softvfp
 459              	HAL_UART_MspDeInit:
 460              	.LVL20:
 461              	.LFB71:
 175:Core/Src/usart.c **** 
 176:Core/Src/usart.c **** void HAL_UART_MspDeInit(UART_HandleTypeDef* uartHandle)
 177:Core/Src/usart.c **** {
 462              		.loc 1 177 1 is_stmt 1 view -0
 463              		.cfi_startproc
 464              		@ args = 0, pretend = 0, frame = 0
 465              		@ frame_needed = 0, uses_anonymous_args = 0
 466              		.loc 1 177 1 is_stmt 0 view .LVU147
 467 0000 10B5     		push	{r4, lr}
 468              	.LCFI6:
 469              		.cfi_def_cfa_offset 8
 470              		.cfi_offset 4, -8
 471              		.cfi_offset 14, -4
 178:Core/Src/usart.c **** 
 179:Core/Src/usart.c ****   if(uartHandle->Instance==UART4)
 472              		.loc 1 179 3 is_stmt 1 view .LVU148
 473              		.loc 1 179 16 is_stmt 0 view .LVU149
 474 0002 0368     		ldr	r3, [r0]
 475              		.loc 1 179 5 view .LVU150
 476 0004 164A     		ldr	r2, .L29
 477 0006 9342     		cmp	r3, r2
 478 0008 03D0     		beq	.L27
 180:Core/Src/usart.c ****   {
ARM GAS  C:\Users\86138\AppData\Local\Temp\ccDRy3Nk.s 			page 14


 181:Core/Src/usart.c ****   /* USER CODE BEGIN UART4_MspDeInit 0 */
 182:Core/Src/usart.c **** 
 183:Core/Src/usart.c ****   /* USER CODE END UART4_MspDeInit 0 */
 184:Core/Src/usart.c ****     /* Peripheral clock disable */
 185:Core/Src/usart.c ****     __HAL_RCC_UART4_CLK_DISABLE();
 186:Core/Src/usart.c **** 
 187:Core/Src/usart.c ****     /**UART4 GPIO Configuration
 188:Core/Src/usart.c ****     PC10     ------> UART4_TX
 189:Core/Src/usart.c ****     PC11     ------> UART4_RX
 190:Core/Src/usart.c ****     */
 191:Core/Src/usart.c ****     HAL_GPIO_DeInit(GPIOC, GPIO_PIN_10|GPIO_PIN_11);
 192:Core/Src/usart.c **** 
 193:Core/Src/usart.c ****     /* UART4 DMA DeInit */
 194:Core/Src/usart.c ****     HAL_DMA_DeInit(uartHandle->hdmarx);
 195:Core/Src/usart.c **** 
 196:Core/Src/usart.c ****     /* UART4 interrupt Deinit */
 197:Core/Src/usart.c ****     HAL_NVIC_DisableIRQ(UART4_IRQn);
 198:Core/Src/usart.c ****   /* USER CODE BEGIN UART4_MspDeInit 1 */
 199:Core/Src/usart.c **** 
 200:Core/Src/usart.c ****   /* USER CODE END UART4_MspDeInit 1 */
 201:Core/Src/usart.c ****   }
 202:Core/Src/usart.c ****   else if(uartHandle->Instance==UART5)
 479              		.loc 1 202 8 is_stmt 1 view .LVU151
 480              		.loc 1 202 10 is_stmt 0 view .LVU152
 481 000a 164A     		ldr	r2, .L29+4
 482 000c 9342     		cmp	r3, r2
 483 000e 13D0     		beq	.L28
 484              	.LVL21:
 485              	.L23:
 203:Core/Src/usart.c ****   {
 204:Core/Src/usart.c ****   /* USER CODE BEGIN UART5_MspDeInit 0 */
 205:Core/Src/usart.c **** 
 206:Core/Src/usart.c ****   /* USER CODE END UART5_MspDeInit 0 */
 207:Core/Src/usart.c ****     /* Peripheral clock disable */
 208:Core/Src/usart.c ****     __HAL_RCC_UART5_CLK_DISABLE();
 209:Core/Src/usart.c **** 
 210:Core/Src/usart.c ****     /**UART5 GPIO Configuration
 211:Core/Src/usart.c ****     PC12     ------> UART5_TX
 212:Core/Src/usart.c ****     PD2     ------> UART5_RX
 213:Core/Src/usart.c ****     */
 214:Core/Src/usart.c ****     HAL_GPIO_DeInit(GPIOC, GPIO_PIN_12);
 215:Core/Src/usart.c **** 
 216:Core/Src/usart.c ****     HAL_GPIO_DeInit(GPIOD, GPIO_PIN_2);
 217:Core/Src/usart.c **** 
 218:Core/Src/usart.c ****     /* UART5 interrupt Deinit */
 219:Core/Src/usart.c ****     HAL_NVIC_DisableIRQ(UART5_IRQn);
 220:Core/Src/usart.c ****   /* USER CODE BEGIN UART5_MspDeInit 1 */
 221:Core/Src/usart.c **** 
 222:Core/Src/usart.c ****   /* USER CODE END UART5_MspDeInit 1 */
 223:Core/Src/usart.c ****   }
 224:Core/Src/usart.c **** }
 486              		.loc 1 224 1 view .LVU153
 487 0010 10BD     		pop	{r4, pc}
 488              	.LVL22:
 489              	.L27:
 490              		.loc 1 224 1 view .LVU154
 491 0012 0446     		mov	r4, r0
ARM GAS  C:\Users\86138\AppData\Local\Temp\ccDRy3Nk.s 			page 15


 185:Core/Src/usart.c **** 
 492              		.loc 1 185 5 is_stmt 1 view .LVU155
 493 0014 02F5E232 		add	r2, r2, #115712
 494 0018 D369     		ldr	r3, [r2, #28]
 495 001a 23F40023 		bic	r3, r3, #524288
 496 001e D361     		str	r3, [r2, #28]
 191:Core/Src/usart.c **** 
 497              		.loc 1 191 5 view .LVU156
 498 0020 4FF44061 		mov	r1, #3072
 499 0024 1048     		ldr	r0, .L29+8
 500              	.LVL23:
 191:Core/Src/usart.c **** 
 501              		.loc 1 191 5 is_stmt 0 view .LVU157
 502 0026 FFF7FEFF 		bl	HAL_GPIO_DeInit
 503              	.LVL24:
 194:Core/Src/usart.c **** 
 504              		.loc 1 194 5 is_stmt 1 view .LVU158
 505 002a A06B     		ldr	r0, [r4, #56]
 506 002c FFF7FEFF 		bl	HAL_DMA_DeInit
 507              	.LVL25:
 197:Core/Src/usart.c ****   /* USER CODE BEGIN UART4_MspDeInit 1 */
 508              		.loc 1 197 5 view .LVU159
 509 0030 3420     		movs	r0, #52
 510 0032 FFF7FEFF 		bl	HAL_NVIC_DisableIRQ
 511              	.LVL26:
 512 0036 EBE7     		b	.L23
 513              	.LVL27:
 514              	.L28:
 208:Core/Src/usart.c **** 
 515              		.loc 1 208 5 view .LVU160
 516 0038 02F5E032 		add	r2, r2, #114688
 517 003c D369     		ldr	r3, [r2, #28]
 518 003e 23F48013 		bic	r3, r3, #1048576
 519 0042 D361     		str	r3, [r2, #28]
 214:Core/Src/usart.c **** 
 520              		.loc 1 214 5 view .LVU161
 521 0044 4FF48051 		mov	r1, #4096
 522 0048 0748     		ldr	r0, .L29+8
 523              	.LVL28:
 214:Core/Src/usart.c **** 
 524              		.loc 1 214 5 is_stmt 0 view .LVU162
 525 004a FFF7FEFF 		bl	HAL_GPIO_DeInit
 526              	.LVL29:
 216:Core/Src/usart.c **** 
 527              		.loc 1 216 5 is_stmt 1 view .LVU163
 528 004e 0421     		movs	r1, #4
 529 0050 0648     		ldr	r0, .L29+12
 530 0052 FFF7FEFF 		bl	HAL_GPIO_DeInit
 531              	.LVL30:
 219:Core/Src/usart.c ****   /* USER CODE BEGIN UART5_MspDeInit 1 */
 532              		.loc 1 219 5 view .LVU164
 533 0056 3520     		movs	r0, #53
 534 0058 FFF7FEFF 		bl	HAL_NVIC_DisableIRQ
 535              	.LVL31:
 536              		.loc 1 224 1 is_stmt 0 view .LVU165
 537 005c D8E7     		b	.L23
 538              	.L30:
ARM GAS  C:\Users\86138\AppData\Local\Temp\ccDRy3Nk.s 			page 16


 539 005e 00BF     		.align	2
 540              	.L29:
 541 0060 004C0040 		.word	1073761280
 542 0064 00500040 		.word	1073762304
 543 0068 00100140 		.word	1073811456
 544 006c 00140140 		.word	1073812480
 545              		.cfi_endproc
 546              	.LFE71:
 548              		.section	.text.u5_printf,"ax",%progbits
 549              		.align	1
 550              		.global	u5_printf
 551              		.syntax unified
 552              		.thumb
 553              		.thumb_func
 554              		.fpu softvfp
 556              	u5_printf:
 557              	.LVL32:
 558              	.LFB72:
 225:Core/Src/usart.c **** 
 226:Core/Src/usart.c **** /* USER CODE BEGIN 1 */
 227:Core/Src/usart.c **** void u5_printf(char* fmt, ...) {
 559              		.loc 1 227 32 is_stmt 1 view -0
 560              		.cfi_startproc
 561              		@ args = 4, pretend = 16, frame = 208
 562              		@ frame_needed = 0, uses_anonymous_args = 1
 563              		.loc 1 227 32 is_stmt 0 view .LVU167
 564 0000 0FB4     		push	{r0, r1, r2, r3}
 565              	.LCFI7:
 566              		.cfi_def_cfa_offset 16
 567              		.cfi_offset 0, -16
 568              		.cfi_offset 1, -12
 569              		.cfi_offset 2, -8
 570              		.cfi_offset 3, -4
 571 0002 00B5     		push	{lr}
 572              	.LCFI8:
 573              		.cfi_def_cfa_offset 20
 574              		.cfi_offset 14, -20
 575 0004 B5B0     		sub	sp, sp, #212
 576              	.LCFI9:
 577              		.cfi_def_cfa_offset 232
 578 0006 36AA     		add	r2, sp, #216
 579 0008 52F8041B 		ldr	r1, [r2], #4
 228:Core/Src/usart.c ****   uint16_t len;
 580              		.loc 1 228 3 is_stmt 1 view .LVU168
 229:Core/Src/usart.c ****   va_list ap;
 581              		.loc 1 229 3 view .LVU169
 230:Core/Src/usart.c ****   va_start(ap, fmt);
 582              		.loc 1 230 3 view .LVU170
 583 000c 3392     		str	r2, [sp, #204]
 231:Core/Src/usart.c ****   uint8_t buf[200];
 584              		.loc 1 231 3 view .LVU171
 232:Core/Src/usart.c ****   vsprintf((char*)buf, fmt, ap);
 585              		.loc 1 232 3 view .LVU172
 586 000e 01A8     		add	r0, sp, #4
 587 0010 FFF7FEFF 		bl	vsprintf
 588              	.LVL33:
 233:Core/Src/usart.c ****   va_end(ap);
ARM GAS  C:\Users\86138\AppData\Local\Temp\ccDRy3Nk.s 			page 17


 589              		.loc 1 233 3 view .LVU173
 234:Core/Src/usart.c ****   len = strlen((char*)buf);
 590              		.loc 1 234 3 view .LVU174
 591              		.loc 1 234 9 is_stmt 0 view .LVU175
 592 0014 01A8     		add	r0, sp, #4
 593 0016 FFF7FEFF 		bl	strlen
 594              	.LVL34:
 235:Core/Src/usart.c ****   HAL_UART_Transmit(&huart5, buf, len, HAL_MAX_DELAY);//若使用了其他UART通道，将对应通
 595              		.loc 1 235 3 is_stmt 1 view .LVU176
 596 001a 4FF0FF33 		mov	r3, #-1
 597 001e 82B2     		uxth	r2, r0
 598 0020 01A9     		add	r1, sp, #4
 599 0022 0448     		ldr	r0, .L33
 600              	.LVL35:
 601              		.loc 1 235 3 is_stmt 0 view .LVU177
 602 0024 FFF7FEFF 		bl	HAL_UART_Transmit
 603              	.LVL36:
 236:Core/Src/usart.c **** }
 604              		.loc 1 236 1 view .LVU178
 605 0028 35B0     		add	sp, sp, #212
 606              	.LCFI10:
 607              		.cfi_def_cfa_offset 20
 608              		@ sp needed
 609 002a 5DF804EB 		ldr	lr, [sp], #4
 610              	.LCFI11:
 611              		.cfi_restore 14
 612              		.cfi_def_cfa_offset 16
 613 002e 04B0     		add	sp, sp, #16
 614              	.LCFI12:
 615              		.cfi_restore 3
 616              		.cfi_restore 2
 617              		.cfi_restore 1
 618              		.cfi_restore 0
 619              		.cfi_def_cfa_offset 0
 620 0030 7047     		bx	lr
 621              	.L34:
 622 0032 00BF     		.align	2
 623              	.L33:
 624 0034 00000000 		.word	.LANCHOR1
 625              		.cfi_endproc
 626              	.LFE72:
 628              		.global	hdma_uart4_rx
 629              		.global	huart5
 630              		.global	huart4
 631              		.section	.bss.hdma_uart4_rx,"aw",%nobits
 632              		.align	2
 633              		.set	.LANCHOR2,. + 0
 636              	hdma_uart4_rx:
 637 0000 00000000 		.space	68
 637      00000000 
 637      00000000 
 637      00000000 
 637      00000000 
 638              		.section	.bss.huart4,"aw",%nobits
 639              		.align	2
 640              		.set	.LANCHOR0,. + 0
 643              	huart4:
ARM GAS  C:\Users\86138\AppData\Local\Temp\ccDRy3Nk.s 			page 18


 644 0000 00000000 		.space	68
 644      00000000 
 644      00000000 
 644      00000000 
 644      00000000 
 645              		.section	.bss.huart5,"aw",%nobits
 646              		.align	2
 647              		.set	.LANCHOR1,. + 0
 650              	huart5:
 651 0000 00000000 		.space	68
 651      00000000 
 651      00000000 
 651      00000000 
 651      00000000 
 652              		.text
 653              	.Letext0:
 654              		.file 2 "c:\\program files (x86)\\gnu arm embedded toolchain\\10 2021.07\\arm-none-eabi\\include\\
 655              		.file 3 "c:\\program files (x86)\\gnu arm embedded toolchain\\10 2021.07\\arm-none-eabi\\include\\
 656              		.file 4 "Drivers/CMSIS/Device/ST/STM32F1xx/Include/stm32f103xe.h"
 657              		.file 5 "Drivers/STM32F1xx_HAL_Driver/Inc/stm32f1xx_hal_def.h"
 658              		.file 6 "Drivers/STM32F1xx_HAL_Driver/Inc/stm32f1xx_hal_gpio.h"
 659              		.file 7 "Drivers/STM32F1xx_HAL_Driver/Inc/stm32f1xx_hal_dma.h"
 660              		.file 8 "Drivers/STM32F1xx_HAL_Driver/Inc/stm32f1xx_hal_uart.h"
 661              		.file 9 "Core/Inc/usart.h"
 662              		.file 10 "c:\\program files (x86)\\gnu arm embedded toolchain\\10 2021.07\\lib\\gcc\\arm-none-eabi
 663              		.file 11 "c:\\program files (x86)\\gnu arm embedded toolchain\\10 2021.07\\arm-none-eabi\\include\
 664              		.file 12 "c:\\program files (x86)\\gnu arm embedded toolchain\\10 2021.07\\arm-none-eabi\\include\
 665              		.file 13 "Drivers/STM32F1xx_HAL_Driver/Inc/stm32f1xx_hal_cortex.h"
 666              		.file 14 "Core/Inc/main.h"
 667              		.file 15 "<built-in>"
ARM GAS  C:\Users\86138\AppData\Local\Temp\ccDRy3Nk.s 			page 19

